(dp1
S'widget_link'
p2
S'INT, INDEX widget_link__idx (widget_link), FOREIGN KEY (widget_link) REFERENCES widgets_entr(id) ON DELETE CASCADE'
p3
sS'id'
p4
S'INT AUTO_INCREMENT NOT NULL'
p5
sS'desktop_link'
p6
S'INT, INDEX desktop_link__idx (desktop_link), FOREIGN KEY (desktop_link) REFERENCES desktop(id) ON DELETE CASCADE'
p7
s.