(dp1
S'user_file'
p2
S'INT, INDEX user_file__idx (user_file), FOREIGN KEY (user_file) REFERENCES auth_user(id) ON DELETE CASCADE'
p3
sS'datemodified'
p4
S'DATETIME'
p5
sS'filepath'
p6
S'VARCHAR(255)'
p7
sS'filetype'
p8
S'VARCHAR(255)'
p9
sS'filename'
p10
S'VARCHAR(255)'
p11
sS'content'
p12
S'LONGTEXT'
p13
sS'filesize'
p14
S'INT'
p15
sS'file'
p16
S'VARCHAR(255)'
p17
sS'parentpath'
p18
S'VARCHAR(255)'
p19
sS'datecreated'
p20
S'DATETIME'
p21
sS'id'
p22
S'INT AUTO_INCREMENT NOT NULL'
p23
s.