(dp1
S'title'
p2
S'VARCHAR(128)'
p3
sS'data1'
p4
S'VARCHAR(255)'
p5
sS'height'
p6
S'INT'
p7
sS'width'
p8
S'INT'
p9
sS'y'
S'INT'
p10
sS'x'
S'INT'
p11
sS'type'
p12
S'VARCHAR(21)'
p13
sS'id'
p14
S'INT AUTO_INCREMENT NOT NULL'
p15
sS'data3'
p16
S'VARCHAR(255)'
p17
sS'data2'
p18
S'VARCHAR(255)'
p19
s.