(dp1
S'origin'
p2
S'VARCHAR(255)'
p3
sS'client_ip'
p4
S'VARCHAR(255)'
p5
sS'user_id'
p6
S'INT, INDEX user_id__idx (user_id), FOREIGN KEY (user_id) REFERENCES auth_user(id) ON DELETE CASCADE'
p7
sS'description'
p8
S'LONGTEXT'
p9
sS'time_stamp'
p10
S'DATETIME'
p11
sS'id'
p12
S'INT AUTO_INCREMENT NOT NULL'
p13
s.