(dp1
S'back_color'
p2
S'VARCHAR(10)'
p3
sS'wallpaper'
p4
S'VARCHAR(255)'
p5
sS'is_default'
p6
S'CHAR(1)'
p7
sS'pwd'
p8
S'VARCHAR(255)'
p9
sS'position'
p10
S'VARCHAR(15)'
p11
sS'desk_name'
p12
S'VARCHAR(21)'
p13
sS'id'
p14
S'INT AUTO_INCREMENT NOT NULL'
p15
sS'is_private'
p16
S'CHAR(1)'
p17
s.