(dp1
S'first_name'
p2
S'VARCHAR(128)'
p3
sS'last_name'
p4
S'VARCHAR(128)'
p5
sS'email'
p6
S'VARCHAR(255)'
p7
sS'reset_password_key'
p8
S'VARCHAR(255)'
p9
sS'password'
p10
S'VARCHAR(255)'
p11
sS'registration_key'
p12
S'VARCHAR(255)'
p13
sS'id'
p14
S'INT AUTO_INCREMENT NOT NULL'
p15
s.