(dp1
S'auth_user'
p2
S'INTEGER REFERENCES auth_user(id) ON DELETE CASCADE'
p3
sS'id'
p4
S'INTEGER PRIMARY KEY AUTOINCREMENT'
p5
sS'vote_log'
p6
S'INTEGER REFERENCES vote_log(id) ON DELETE CASCADE'
p7
s.