(dp1
S'title'
p2
S'CHAR(512)'
p3
sS'url'
p4
S'CHAR(128)'
p5
sS'direct_link'
p6
S'CHAR(1)'
p7
sS'logo_link'
p8
S'CHAR(128)'
p9
sS'user_link'
p10
S'INTEGER REFERENCES auth_user(id) ON DELETE CASCADE'
p11
sS'y'
S'INTEGER'
p12
sS'x'
S'INTEGER'
p13
sS'id'
p14
S'INTEGER PRIMARY KEY AUTOINCREMENT'
p15
sS'desktop_link'
p16
S'INTEGER REFERENCES desktop(id) ON DELETE CASCADE'
p17
s.