(dp1
S'title'
p2
S'CHAR(128)'
p3
sS'data1'
p4
S'CHAR(256)'
p5
sS'height'
p6
S'INTEGER'
p7
sS'width'
p8
S'INTEGER'
p9
sS'user_link'
p10
S'INTEGER REFERENCES auth_user(id) ON DELETE CASCADE'
p11
sS'y'
S'INTEGER'
p12
sS'x'
S'INTEGER'
p13
sS'desktop_link'
p14
S'INTEGER REFERENCES desktop(id) ON DELETE CASCADE'
p15
sS'type'
p16
S'CHAR(21)'
p17
sS'id'
p18
S'INTEGER PRIMARY KEY AUTOINCREMENT'
p19
sS'data3'
p20
S'CHAR(256)'
p21
sS'data2'
p22
S'CHAR(256)'
p23
s.