(dp1
S'back_color'
p2
S'CHAR(10)'
p3
sS'wallpaper'
p4
S'CHAR(256)'
p5
sS'is_default'
p6
S'CHAR(1)'
p7
sS'pwd'
p8
S'CHAR(512)'
p9
sS'position'
p10
S'CHAR(15)'
p11
sS'desk_name'
p12
S'CHAR(21)'
p13
sS'id'
p14
S'INTEGER PRIMARY KEY AUTOINCREMENT'
p15
sS'is_private'
p16
S'CHAR(1)'
p17
s.