(dp1
S'title'
p2
S'CHAR(128)'
p3
sS'data1'
p4
S'CHAR(256)'
p5
sS'height'
p6
S'INTEGER'
p7
sS'width'
p8
S'INTEGER'
p9
sS'y'
S'INTEGER'
p10
sS'x'
S'INTEGER'
p11
sS'type'
p12
S'CHAR(21)'
p13
sS'id'
p14
S'INTEGER PRIMARY KEY AUTOINCREMENT'
p15
sS'data3'
p16
S'CHAR(256)'
p17
sS'data2'
p18
S'CHAR(256)'
p19
s.