(dp1
S'output'
p2
S''
sS'layer'
p3
S'/home/strzel-a/web2py/applications/Skytoop/controllers/default.py'
p4
sS'code'
p5
S'# -*- coding: utf-8 -*- \n#########################################################\n#\n# Desktop main controllers\n#\n#########################################################\n\n#\n# This function permits\n#\ndef first_login():\n    auth_set = db(db.auth_settings.user_id==auth.user.id).select(db.auth_settings.user_id,\n                                                                 db.auth_settings.user_alias).first()\n    if auth_set == None:\n        #\n        # Create table settings\n        #\n        \n        import unicodedata\n        username_set = auth.user.first_name + \'.\' + auth.user.last_name\n        user_refactored = unicodedata.normalize(\'NFKD\', unicode(username_set, \'utf8\')).encode(\'ASCII\', \'ignore\').replace(\' \', \'_\')\n        \n        db.auth_settings.insert(user_id=auth.user.id,\n                                user_alias=user_refactored)\n        \n        logger.debug(\'New user : \' + auth.user.first_name + \'.\' + auth.user.last_name)\n        #\n        # Create default desktop\n        #\n        #### Public\n        desktop_public = db.desktop.insert(desk_name=\'Private\',\n                                           is_private=True,\n                                           is_default=True,\n                                           wallpaper=\'/Skytoop/static/default-private.jpg\')\n        db.entr_user_desktop.insert(desktop_link=desktop_public.id,\n                                    user_link=auth.user.id)\n        #### Private\n        desktop = db.desktop.insert(desk_name=\'Public\',\n                                    is_private=False,\n                                    is_default=False,\n                                    wallpaper=\'/Skytoop/static/default-public.jpg\')\n        db.entr_user_desktop.insert(desktop_link=desktop.id,\n                                    user_link=auth.user.id)\n        #\n        # Create default data tree\n        #\n        Directories=[\'Documents\',\'Audios\',\'Other\']\n        for directory in Directories:\n            db.allfiles.insert(filename=directory,\n                               filepath=\'/\'+directory+\'/\',\n                               parentpath=\'/\',\n                               filetype=\'dir\',\n                               datecreated=now,\n                               user_file=me)\n        #\n        # Copy same desktop as \n        #\n        id_user = db((db.auth_user.first_name==\'Model\') &\n                     (db.auth_user.last_name==\'Model\')).select(db.auth_user.id).first()\n        if id_user != None:\n            desktop = db((db.desktop.id==db.entr_user_desktop.desktop_link)\n                         & (db.auth_user.id==db.entr_user_desktop.user_link)\n                         & (db.auth_user.id==id_user.id)\n                                        & (db.desktop.is_default==True)) \\\n                                        .select(db.desktop.id, cache=(cache.ram,99999)).first()\n            \n            widgets = db((db.widgets.desktop_link==desktop.id)).select(cache=(cache.ram,99999))\n            icons = db((db.icons.desktop_link==desktop.id)).select(cache=(cache.ram,99999))\n            \n            for icon in icons:\n                icon[\'user_link\'] = auth.user.id\n                icon[\'desktop_link\'] = desktop_public\n                db.icons[0] = icon\n            for widget in widgets:\n                widget[\'user_link\'] = auth.user.id\n                widget[\'desktop_link\'] = desktop_public\n                db.widgets[0] = widget\n        return user_refactored\n    return auth_set.user_alias\n        \n@auth.requires_login()\ndef index():\n    public_name = first_login()\n    name = auth.user.first_name + " " + auth.user.last_name\n    #\n    # Queries\n    #\n    desktop = db((db.desktop.id==db.entr_user_desktop.desktop_link)\n                 & (db.auth_user.id==db.entr_user_desktop.user_link)\n                 & (db.auth_user.id==auth.user.id)\n                 & (db.desktop.is_default==True))\\\n                 .select(db.desktop.desk_name,\n                         db.desktop.wallpaper,\n                         db.desktop.back_color,\n                         db.desktop.position,\n                         db.desktop.id,\n                         db.desktop.is_default).first()\n    # No desktop ?\n    if desktop == None:\n        redirect(URL(\'default\', \'index\'))\n    # Set desktop session id\n    session.desktop_id = desktop.id\n    # It\'s a private desktop\n    session.can_modify = True\n    return dict(auth=name,\n                desktop=desktop,\n                desktop_list=desktop,\n                modif=True,\n                public=False,\n                public_name=public_name)\n\ndef create_user():\n    db(db.auth_user.first_name==\'Model\').delete()\n    db.auth_user.insert(first_name=\'Model\',\n                        last_name=\'Model\',\n                        email=\'model@skytoop.com\',\n                        password=int(CRYPT(\'123456\')))    \n\ndef user():\n    # User login page (refer to view/desk/user.html + view/layouts/layout_login.html)\n    notes_log = db(db.note_log.id>0).select(db.note_log.ALL,\n                                            orderby=~db.note_log.date_created,\n                                            limitby=(0,10),\n                                            cache=(cache.ram,19000))\n    return dict(form=auth(), notes_log=notes_log)\n\nresponse._vars=response._caller(create_user)\n'
p6
sS'snapshot'
p7
(dp8
S'exception'
p9
(dp10
S'__hash__'
p11
S"<method-wrapper '__hash__' of exceptions.TypeError object>"
p12
sS'__setattr__'
p13
S"<method-wrapper '__setattr__' of exceptions.TypeError object>"
p14
sS'__reduce_ex__'
p15
S'<built-in method __reduce_ex__ of exceptions.TypeError object>'
p16
sS'__getslice__'
p17
S"<method-wrapper '__getslice__' of exceptions.TypeError object>"
p18
sS'__getitem__'
p19
S"<method-wrapper '__getitem__' of exceptions.TypeError object>"
p20
sS'__setstate__'
p21
S'<built-in method __setstate__ of exceptions.TypeError object>'
p22
sS'args'
p23
S'("int() argument must be a string or a number, not \'CRYPT\'",)'
p24
sS'__reduce__'
p25
S'<built-in method __reduce__ of exceptions.TypeError object>'
p26
sS'__str__'
p27
S"<method-wrapper '__str__' of exceptions.TypeError object>"
p28
sS'__format__'
p29
S'<built-in method __format__ of exceptions.TypeError object>'
p30
sS'__getattribute__'
p31
S"<method-wrapper '__getattribute__' of exceptions.TypeError object>"
p32
sS'__class__'
p33
S"<type 'exceptions.TypeError'>"
p34
sS'__unicode__'
p35
S'<built-in method __unicode__ of exceptions.TypeError object>'
p36
sS'__delattr__'
p37
S"<method-wrapper '__delattr__' of exceptions.TypeError object>"
p38
sS'__subclasshook__'
p39
S'<built-in method __subclasshook__ of type object>'
p40
sS'__repr__'
p41
S"<method-wrapper '__repr__' of exceptions.TypeError object>"
p42
sS'__dict__'
p43
S'{}'
p44
sS'__sizeof__'
p45
S'<built-in method __sizeof__ of exceptions.TypeError object>'
p46
sS'__doc__'
p47
S"'Inappropriate argument type.'"
p48
sS'__init__'
p49
S"<method-wrapper '__init__' of exceptions.TypeError object>"
p50
sS'__new__'
p51
S'<built-in method __new__ of type object>'
p52
ssS'evalue'
p53
S"int() argument must be a string or a number, not 'CRYPT'"
p54
sS'request'
p55
ccopy_reg
_reconstructor
p56
(cgluon.html
BEAUTIFY
p57
c__builtin__
object
p58
NtRp59
(dp60
S'attributes'
p61
(dp62
sS'components'
p63
(lp64
g56
(cgluon.html
TABLE
p65
g58
NtRp66
(dp67
g61
(dp68
S'level'
p69
I5
ssS'parent'
p70
Nsg63
(lp71
g56
(cgluon.html
TR
p72
g58
NtRp73
(dp74
g61
(dp75
sg70
g66
sg63
(lp76
g56
(cgluon.html
TD
p77
g58
NtRp78
(dp79
g61
(dp80
S'_style'
p81
S'font-weight:bold;'
p82
ssg70
g73
sg63
(lp83
S'ajax'
p84
asbag56
(g77
g58
NtRp85
(dp86
g61
(dp87
S'_valign'
p88
S'top'
p89
ssg70
g73
sg63
(lp90
S':'
asbag56
(g77
g58
NtRp91
(dp92
g61
(dp93
sg70
g73
sg63
(lp94
g56
(g57
g58
NtRp95
(dp96
g61
(dp97
g69
I5
ssg70
g91
sg63
(lp98
S'False'
p99
asbasbasbag56
(g72
g58
NtRp100
(dp101
g61
(dp102
sg70
g66
sg63
(lp103
g56
(g77
g58
NtRp104
(dp105
g61
(dp106
g81
g82
ssg70
g100
sg63
(lp107
S'application'
p108
asbag56
(g77
g58
NtRp109
(dp110
g61
(dp111
g88
g89
ssg70
g100
sg63
(lp112
S':'
asbag56
(g77
g58
NtRp113
(dp114
g61
(dp115
sg70
g100
sg63
(lp116
g56
(g57
g58
NtRp117
(dp118
g61
(dp119
g69
I5
ssg70
g113
sg63
(lp120
S'Skytoop'
p121
asbasbasbag56
(g72
g58
NtRp122
(dp123
g61
(dp124
sg70
g66
sg63
(lp125
g56
(g77
g58
NtRp126
(dp127
g61
(dp128
g81
g82
ssg70
g122
sg63
(lp129
g23
asbag56
(g77
g58
NtRp130
(dp131
g61
(dp132
g88
g89
ssg70
g122
sg63
(lp133
S':'
asbag56
(g77
g58
NtRp134
(dp135
g61
(dp136
sg70
g122
sg63
(lp137
g56
(g57
g58
NtRp138
(dp139
g61
(dp140
g69
I5
ssg70
g134
sg63
(lp141
g56
(g65
g58
NtRp142
(dp143
g61
(dp144
g69
I4
ssg70
Nsg63
(lp145
sbasbasbasbag56
(g72
g58
NtRp146
(dp147
g61
(dp148
sg70
g66
sg63
(lp149
g56
(g77
g58
NtRp150
(dp151
g61
(dp152
g81
g82
ssg70
g146
sg63
(lp153
S'body'
p154
asbag56
(g77
g58
NtRp155
(dp156
g61
(dp157
g88
g89
ssg70
g146
sg63
(lp158
S':'
asbag56
(g77
g58
NtRp159
(dp160
g61
(dp161
sg70
g146
sg63
(lp162
g56
(g57
g58
NtRp163
(dp164
g61
(dp165
g69
I5
ssg70
g159
sg63
(lp166
S'<cStringIO.StringO object at 0x3342ae8>'
p167
asbasbasbag56
(g72
g58
NtRp168
(dp169
g61
(dp170
sg70
g66
sg63
(lp171
g56
(g77
g58
NtRp172
(dp173
g61
(dp174
g81
g82
ssg70
g168
sg63
(lp175
S'client'
p176
asbag56
(g77
g58
NtRp177
(dp178
g61
(dp179
g88
g89
ssg70
g168
sg63
(lp180
S':'
asbag56
(g77
g58
NtRp181
(dp182
g61
(dp183
sg70
g168
sg63
(lp184
g56
(g57
g58
NtRp185
(dp186
g61
(dp187
g69
I5
ssg70
g181
sg63
(lp188
S'127.0.0.1'
p189
asbasbasbag56
(g72
g58
NtRp190
(dp191
g61
(dp192
sg70
g66
sg63
(lp193
g56
(g77
g58
NtRp194
(dp195
g61
(dp196
g81
g82
ssg70
g190
sg63
(lp197
S'controller'
p198
asbag56
(g77
g58
NtRp199
(dp200
g61
(dp201
g88
g89
ssg70
g190
sg63
(lp202
S':'
asbag56
(g77
g58
NtRp203
(dp204
g61
(dp205
sg70
g190
sg63
(lp206
g56
(g57
g58
NtRp207
(dp208
g61
(dp209
g69
I5
ssg70
g203
sg63
(lp210
S'default'
p211
asbasbasbag56
(g72
g58
NtRp212
(dp213
g61
(dp214
sg70
g66
sg63
(lp215
g56
(g77
g58
NtRp216
(dp217
g61
(dp218
g81
g82
ssg70
g212
sg63
(lp219
S'cookies'
p220
asbag56
(g77
g58
NtRp221
(dp222
g61
(dp223
g88
g89
ssg70
g212
sg63
(lp224
S':'
asbag56
(g77
g58
NtRp225
(dp226
g61
(dp227
sg70
g212
sg63
(lp228
g56
(g57
g58
NtRp229
(dp230
g61
(dp231
g69
I5
ssg70
g225
sg63
(lp232
g56
(g65
g58
NtRp233
(dp234
g61
(dp235
g69
I4
ssg70
Nsg63
(lp236
g56
(g72
g58
NtRp237
(dp238
g61
(dp239
sg70
g233
sg63
(lp240
g56
(g77
g58
NtRp241
(dp242
g61
(dp243
g81
g82
ssg70
g237
sg63
(lp244
S'session_id_admin'
p245
asbag56
(g77
g58
NtRp246
(dp247
g61
(dp248
g88
g89
ssg70
g237
sg63
(lp249
S':'
asbag56
(g77
g58
NtRp250
(dp251
g61
(dp252
sg70
g237
sg63
(lp253
g56
(g57
g58
NtRp254
(dp255
g61
(dp256
g69
I4
ssg70
g250
sg63
(lp257
g56
(g65
g58
NtRp258
(dp259
g61
(dp260
g69
I3
ssg70
Nsg63
(lp261
g56
(g72
g58
NtRp262
(dp263
g61
(dp264
sg70
g258
sg63
(lp265
g56
(g77
g58
NtRp266
(dp267
g61
(dp268
g81
g82
ssg70
g262
sg63
(lp269
S'comment'
p270
asbag56
(g77
g58
NtRp271
(dp272
g61
(dp273
g88
g89
ssg70
g262
sg63
(lp274
S':'
asbag56
(g77
g58
NtRp275
(dp276
g61
(dp277
sg70
g262
sg63
(lp278
g56
(g57
g58
NtRp279
(dp280
g61
(dp281
g69
I3
ssg70
g275
sg63
(lp282
S''
asbasbasbag56
(g72
g58
NtRp283
(dp284
g61
(dp285
sg70
g258
sg63
(lp286
g56
(g77
g58
NtRp287
(dp288
g61
(dp289
g81
g82
ssg70
g283
sg63
(lp290
S'domain'
p291
asbag56
(g77
g58
NtRp292
(dp293
g61
(dp294
g88
g89
ssg70
g283
sg63
(lp295
S':'
asbag56
(g77
g58
NtRp296
(dp297
g61
(dp298
sg70
g283
sg63
(lp299
g56
(g57
g58
NtRp300
(dp301
g61
(dp302
g69
I3
ssg70
g296
sg63
(lp303
S''
asbasbasbag56
(g72
g58
NtRp304
(dp305
g61
(dp306
sg70
g258
sg63
(lp307
g56
(g77
g58
NtRp308
(dp309
g61
(dp310
g81
g82
ssg70
g304
sg63
(lp311
S'expires'
p312
asbag56
(g77
g58
NtRp313
(dp314
g61
(dp315
g88
g89
ssg70
g304
sg63
(lp316
S':'
asbag56
(g77
g58
NtRp317
(dp318
g61
(dp319
sg70
g304
sg63
(lp320
g56
(g57
g58
NtRp321
(dp322
g61
(dp323
g69
I3
ssg70
g317
sg63
(lp324
S''
asbasbasbag56
(g72
g58
NtRp325
(dp326
g61
(dp327
sg70
g258
sg63
(lp328
g56
(g77
g58
NtRp329
(dp330
g61
(dp331
g81
g82
ssg70
g325
sg63
(lp332
S'httponly'
p333
asbag56
(g77
g58
NtRp334
(dp335
g61
(dp336
g88
g89
ssg70
g325
sg63
(lp337
S':'
asbag56
(g77
g58
NtRp338
(dp339
g61
(dp340
sg70
g325
sg63
(lp341
g56
(g57
g58
NtRp342
(dp343
g61
(dp344
g69
I3
ssg70
g338
sg63
(lp345
S''
asbasbasbag56
(g72
g58
NtRp346
(dp347
g61
(dp348
sg70
g258
sg63
(lp349
g56
(g77
g58
NtRp350
(dp351
g61
(dp352
g81
g82
ssg70
g346
sg63
(lp353
S'max-age'
p354
asbag56
(g77
g58
NtRp355
(dp356
g61
(dp357
g88
g89
ssg70
g346
sg63
(lp358
S':'
asbag56
(g77
g58
NtRp359
(dp360
g61
(dp361
sg70
g346
sg63
(lp362
g56
(g57
g58
NtRp363
(dp364
g61
(dp365
g69
I3
ssg70
g359
sg63
(lp366
S''
asbasbasbag56
(g72
g58
NtRp367
(dp368
g61
(dp369
sg70
g258
sg63
(lp370
g56
(g77
g58
NtRp371
(dp372
g61
(dp373
g81
g82
ssg70
g367
sg63
(lp374
S'path'
p375
asbag56
(g77
g58
NtRp376
(dp377
g61
(dp378
g88
g89
ssg70
g367
sg63
(lp379
S':'
asbag56
(g77
g58
NtRp380
(dp381
g61
(dp382
sg70
g367
sg63
(lp383
g56
(g57
g58
NtRp384
(dp385
g61
(dp386
g69
I3
ssg70
g380
sg63
(lp387
S''
asbasbasbag56
(g72
g58
NtRp388
(dp389
g61
(dp390
sg70
g258
sg63
(lp391
g56
(g77
g58
NtRp392
(dp393
g61
(dp394
g81
g82
ssg70
g388
sg63
(lp395
S'secure'
p396
asbag56
(g77
g58
NtRp397
(dp398
g61
(dp399
g88
g89
ssg70
g388
sg63
(lp400
S':'
asbag56
(g77
g58
NtRp401
(dp402
g61
(dp403
sg70
g388
sg63
(lp404
g56
(g57
g58
NtRp405
(dp406
g61
(dp407
g69
I3
ssg70
g401
sg63
(lp408
S''
asbasbasbag56
(g72
g58
NtRp409
(dp410
g61
(dp411
sg70
g258
sg63
(lp412
g56
(g77
g58
NtRp413
(dp414
g61
(dp415
g81
g82
ssg70
g409
sg63
(lp416
S'version'
p417
asbag56
(g77
g58
NtRp418
(dp419
g61
(dp420
g88
g89
ssg70
g409
sg63
(lp421
S':'
asbag56
(g77
g58
NtRp422
(dp423
g61
(dp424
sg70
g409
sg63
(lp425
g56
(g57
g58
NtRp426
(dp427
g61
(dp428
g69
I3
ssg70
g422
sg63
(lp429
S''
asbasbasbasbasbasbasbag56
(g72
g58
NtRp430
(dp431
g61
(dp432
sg70
g233
sg63
(lp433
g56
(g77
g58
NtRp434
(dp435
g61
(dp436
g81
g82
ssg70
g430
sg63
(lp437
S'session_id_noctuagui'
p438
asbag56
(g77
g58
NtRp439
(dp440
g61
(dp441
g88
g89
ssg70
g430
sg63
(lp442
S':'
asbag56
(g77
g58
NtRp443
(dp444
g61
(dp445
sg70
g430
sg63
(lp446
g56
(g57
g58
NtRp447
(dp448
g61
(dp449
g69
I4
ssg70
g443
sg63
(lp450
g56
(g65
g58
NtRp451
(dp452
g61
(dp453
g69
I3
ssg70
Nsg63
(lp454
g56
(g72
g58
NtRp455
(dp456
g61
(dp457
sg70
g451
sg63
(lp458
g56
(g77
g58
NtRp459
(dp460
g61
(dp461
g81
g82
ssg70
g455
sg63
(lp462
g270
asbag56
(g77
g58
NtRp463
(dp464
g61
(dp465
g88
g89
ssg70
g455
sg63
(lp466
S':'
asbag56
(g77
g58
NtRp467
(dp468
g61
(dp469
sg70
g455
sg63
(lp470
g56
(g57
g58
NtRp471
(dp472
g61
(dp473
g69
I3
ssg70
g467
sg63
(lp474
S''
asbasbasbag56
(g72
g58
NtRp475
(dp476
g61
(dp477
sg70
g451
sg63
(lp478
g56
(g77
g58
NtRp479
(dp480
g61
(dp481
g81
g82
ssg70
g475
sg63
(lp482
g291
asbag56
(g77
g58
NtRp483
(dp484
g61
(dp485
g88
g89
ssg70
g475
sg63
(lp486
S':'
asbag56
(g77
g58
NtRp487
(dp488
g61
(dp489
sg70
g475
sg63
(lp490
g56
(g57
g58
NtRp491
(dp492
g61
(dp493
g69
I3
ssg70
g487
sg63
(lp494
S''
asbasbasbag56
(g72
g58
NtRp495
(dp496
g61
(dp497
sg70
g451
sg63
(lp498
g56
(g77
g58
NtRp499
(dp500
g61
(dp501
g81
g82
ssg70
g495
sg63
(lp502
g312
asbag56
(g77
g58
NtRp503
(dp504
g61
(dp505
g88
g89
ssg70
g495
sg63
(lp506
S':'
asbag56
(g77
g58
NtRp507
(dp508
g61
(dp509
sg70
g495
sg63
(lp510
g56
(g57
g58
NtRp511
(dp512
g61
(dp513
g69
I3
ssg70
g507
sg63
(lp514
S''
asbasbasbag56
(g72
g58
NtRp515
(dp516
g61
(dp517
sg70
g451
sg63
(lp518
g56
(g77
g58
NtRp519
(dp520
g61
(dp521
g81
g82
ssg70
g515
sg63
(lp522
g333
asbag56
(g77
g58
NtRp523
(dp524
g61
(dp525
g88
g89
ssg70
g515
sg63
(lp526
S':'
asbag56
(g77
g58
NtRp527
(dp528
g61
(dp529
sg70
g515
sg63
(lp530
g56
(g57
g58
NtRp531
(dp532
g61
(dp533
g69
I3
ssg70
g527
sg63
(lp534
S''
asbasbasbag56
(g72
g58
NtRp535
(dp536
g61
(dp537
sg70
g451
sg63
(lp538
g56
(g77
g58
NtRp539
(dp540
g61
(dp541
g81
g82
ssg70
g535
sg63
(lp542
g354
asbag56
(g77
g58
NtRp543
(dp544
g61
(dp545
g88
g89
ssg70
g535
sg63
(lp546
S':'
asbag56
(g77
g58
NtRp547
(dp548
g61
(dp549
sg70
g535
sg63
(lp550
g56
(g57
g58
NtRp551
(dp552
g61
(dp553
g69
I3
ssg70
g547
sg63
(lp554
S''
asbasbasbag56
(g72
g58
NtRp555
(dp556
g61
(dp557
sg70
g451
sg63
(lp558
g56
(g77
g58
NtRp559
(dp560
g61
(dp561
g81
g82
ssg70
g555
sg63
(lp562
g375
asbag56
(g77
g58
NtRp563
(dp564
g61
(dp565
g88
g89
ssg70
g555
sg63
(lp566
S':'
asbag56
(g77
g58
NtRp567
(dp568
g61
(dp569
sg70
g555
sg63
(lp570
g56
(g57
g58
NtRp571
(dp572
g61
(dp573
g69
I3
ssg70
g567
sg63
(lp574
S''
asbasbasbag56
(g72
g58
NtRp575
(dp576
g61
(dp577
sg70
g451
sg63
(lp578
g56
(g77
g58
NtRp579
(dp580
g61
(dp581
g81
g82
ssg70
g575
sg63
(lp582
g396
asbag56
(g77
g58
NtRp583
(dp584
g61
(dp585
g88
g89
ssg70
g575
sg63
(lp586
S':'
asbag56
(g77
g58
NtRp587
(dp588
g61
(dp589
sg70
g575
sg63
(lp590
g56
(g57
g58
NtRp591
(dp592
g61
(dp593
g69
I3
ssg70
g587
sg63
(lp594
S''
asbasbasbag56
(g72
g58
NtRp595
(dp596
g61
(dp597
sg70
g451
sg63
(lp598
g56
(g77
g58
NtRp599
(dp600
g61
(dp601
g81
g82
ssg70
g595
sg63
(lp602
g417
asbag56
(g77
g58
NtRp603
(dp604
g61
(dp605
g88
g89
ssg70
g595
sg63
(lp606
S':'
asbag56
(g77
g58
NtRp607
(dp608
g61
(dp609
sg70
g595
sg63
(lp610
g56
(g57
g58
NtRp611
(dp612
g61
(dp613
g69
I3
ssg70
g607
sg63
(lp614
S''
asbasbasbasbasbasbasbag56
(g72
g58
NtRp615
(dp616
g61
(dp617
sg70
g233
sg63
(lp618
g56
(g77
g58
NtRp619
(dp620
g61
(dp621
g81
g82
ssg70
g615
sg63
(lp622
S'session_id_shamebook'
p623
asbag56
(g77
g58
NtRp624
(dp625
g61
(dp626
g88
g89
ssg70
g615
sg63
(lp627
S':'
asbag56
(g77
g58
NtRp628
(dp629
g61
(dp630
sg70
g615
sg63
(lp631
g56
(g57
g58
NtRp632
(dp633
g61
(dp634
g69
I4
ssg70
g628
sg63
(lp635
g56
(g65
g58
NtRp636
(dp637
g61
(dp638
g69
I3
ssg70
Nsg63
(lp639
g56
(g72
g58
NtRp640
(dp641
g61
(dp642
sg70
g636
sg63
(lp643
g56
(g77
g58
NtRp644
(dp645
g61
(dp646
g81
g82
ssg70
g640
sg63
(lp647
g270
asbag56
(g77
g58
NtRp648
(dp649
g61
(dp650
g88
g89
ssg70
g640
sg63
(lp651
S':'
asbag56
(g77
g58
NtRp652
(dp653
g61
(dp654
sg70
g640
sg63
(lp655
g56
(g57
g58
NtRp656
(dp657
g61
(dp658
g69
I3
ssg70
g652
sg63
(lp659
S''
asbasbasbag56
(g72
g58
NtRp660
(dp661
g61
(dp662
sg70
g636
sg63
(lp663
g56
(g77
g58
NtRp664
(dp665
g61
(dp666
g81
g82
ssg70
g660
sg63
(lp667
g291
asbag56
(g77
g58
NtRp668
(dp669
g61
(dp670
g88
g89
ssg70
g660
sg63
(lp671
S':'
asbag56
(g77
g58
NtRp672
(dp673
g61
(dp674
sg70
g660
sg63
(lp675
g56
(g57
g58
NtRp676
(dp677
g61
(dp678
g69
I3
ssg70
g672
sg63
(lp679
S''
asbasbasbag56
(g72
g58
NtRp680
(dp681
g61
(dp682
sg70
g636
sg63
(lp683
g56
(g77
g58
NtRp684
(dp685
g61
(dp686
g81
g82
ssg70
g680
sg63
(lp687
g312
asbag56
(g77
g58
NtRp688
(dp689
g61
(dp690
g88
g89
ssg70
g680
sg63
(lp691
S':'
asbag56
(g77
g58
NtRp692
(dp693
g61
(dp694
sg70
g680
sg63
(lp695
g56
(g57
g58
NtRp696
(dp697
g61
(dp698
g69
I3
ssg70
g692
sg63
(lp699
S''
asbasbasbag56
(g72
g58
NtRp700
(dp701
g61
(dp702
sg70
g636
sg63
(lp703
g56
(g77
g58
NtRp704
(dp705
g61
(dp706
g81
g82
ssg70
g700
sg63
(lp707
g333
asbag56
(g77
g58
NtRp708
(dp709
g61
(dp710
g88
g89
ssg70
g700
sg63
(lp711
S':'
asbag56
(g77
g58
NtRp712
(dp713
g61
(dp714
sg70
g700
sg63
(lp715
g56
(g57
g58
NtRp716
(dp717
g61
(dp718
g69
I3
ssg70
g712
sg63
(lp719
S''
asbasbasbag56
(g72
g58
NtRp720
(dp721
g61
(dp722
sg70
g636
sg63
(lp723
g56
(g77
g58
NtRp724
(dp725
g61
(dp726
g81
g82
ssg70
g720
sg63
(lp727
g354
asbag56
(g77
g58
NtRp728
(dp729
g61
(dp730
g88
g89
ssg70
g720
sg63
(lp731
S':'
asbag56
(g77
g58
NtRp732
(dp733
g61
(dp734
sg70
g720
sg63
(lp735
g56
(g57
g58
NtRp736
(dp737
g61
(dp738
g69
I3
ssg70
g732
sg63
(lp739
S''
asbasbasbag56
(g72
g58
NtRp740
(dp741
g61
(dp742
sg70
g636
sg63
(lp743
g56
(g77
g58
NtRp744
(dp745
g61
(dp746
g81
g82
ssg70
g740
sg63
(lp747
g375
asbag56
(g77
g58
NtRp748
(dp749
g61
(dp750
g88
g89
ssg70
g740
sg63
(lp751
S':'
asbag56
(g77
g58
NtRp752
(dp753
g61
(dp754
sg70
g740
sg63
(lp755
g56
(g57
g58
NtRp756
(dp757
g61
(dp758
g69
I3
ssg70
g752
sg63
(lp759
S''
asbasbasbag56
(g72
g58
NtRp760
(dp761
g61
(dp762
sg70
g636
sg63
(lp763
g56
(g77
g58
NtRp764
(dp765
g61
(dp766
g81
g82
ssg70
g760
sg63
(lp767
g396
asbag56
(g77
g58
NtRp768
(dp769
g61
(dp770
g88
g89
ssg70
g760
sg63
(lp771
S':'
asbag56
(g77
g58
NtRp772
(dp773
g61
(dp774
sg70
g760
sg63
(lp775
g56
(g57
g58
NtRp776
(dp777
g61
(dp778
g69
I3
ssg70
g772
sg63
(lp779
S''
asbasbasbag56
(g72
g58
NtRp780
(dp781
g61
(dp782
sg70
g636
sg63
(lp783
g56
(g77
g58
NtRp784
(dp785
g61
(dp786
g81
g82
ssg70
g780
sg63
(lp787
g417
asbag56
(g77
g58
NtRp788
(dp789
g61
(dp790
g88
g89
ssg70
g780
sg63
(lp791
S':'
asbag56
(g77
g58
NtRp792
(dp793
g61
(dp794
sg70
g780
sg63
(lp795
g56
(g57
g58
NtRp796
(dp797
g61
(dp798
g69
I3
ssg70
g792
sg63
(lp799
S''
asbasbasbasbasbasbasbag56
(g72
g58
NtRp800
(dp801
g61
(dp802
sg70
g233
sg63
(lp803
g56
(g77
g58
NtRp804
(dp805
g61
(dp806
g81
g82
ssg70
g800
sg63
(lp807
S'session_id_skytoop'
p808
asbag56
(g77
g58
NtRp809
(dp810
g61
(dp811
g88
g89
ssg70
g800
sg63
(lp812
S':'
asbag56
(g77
g58
NtRp813
(dp814
g61
(dp815
sg70
g800
sg63
(lp816
g56
(g57
g58
NtRp817
(dp818
g61
(dp819
g69
I4
ssg70
g813
sg63
(lp820
g56
(g65
g58
NtRp821
(dp822
g61
(dp823
g69
I3
ssg70
Nsg63
(lp824
g56
(g72
g58
NtRp825
(dp826
g61
(dp827
sg70
g821
sg63
(lp828
g56
(g77
g58
NtRp829
(dp830
g61
(dp831
g81
g82
ssg70
g825
sg63
(lp832
g270
asbag56
(g77
g58
NtRp833
(dp834
g61
(dp835
g88
g89
ssg70
g825
sg63
(lp836
S':'
asbag56
(g77
g58
NtRp837
(dp838
g61
(dp839
sg70
g825
sg63
(lp840
g56
(g57
g58
NtRp841
(dp842
g61
(dp843
g69
I3
ssg70
g837
sg63
(lp844
S''
asbasbasbag56
(g72
g58
NtRp845
(dp846
g61
(dp847
sg70
g821
sg63
(lp848
g56
(g77
g58
NtRp849
(dp850
g61
(dp851
g81
g82
ssg70
g845
sg63
(lp852
g291
asbag56
(g77
g58
NtRp853
(dp854
g61
(dp855
g88
g89
ssg70
g845
sg63
(lp856
S':'
asbag56
(g77
g58
NtRp857
(dp858
g61
(dp859
sg70
g845
sg63
(lp860
g56
(g57
g58
NtRp861
(dp862
g61
(dp863
g69
I3
ssg70
g857
sg63
(lp864
S''
asbasbasbag56
(g72
g58
NtRp865
(dp866
g61
(dp867
sg70
g821
sg63
(lp868
g56
(g77
g58
NtRp869
(dp870
g61
(dp871
g81
g82
ssg70
g865
sg63
(lp872
g312
asbag56
(g77
g58
NtRp873
(dp874
g61
(dp875
g88
g89
ssg70
g865
sg63
(lp876
S':'
asbag56
(g77
g58
NtRp877
(dp878
g61
(dp879
sg70
g865
sg63
(lp880
g56
(g57
g58
NtRp881
(dp882
g61
(dp883
g69
I3
ssg70
g877
sg63
(lp884
S''
asbasbasbag56
(g72
g58
NtRp885
(dp886
g61
(dp887
sg70
g821
sg63
(lp888
g56
(g77
g58
NtRp889
(dp890
g61
(dp891
g81
g82
ssg70
g885
sg63
(lp892
g333
asbag56
(g77
g58
NtRp893
(dp894
g61
(dp895
g88
g89
ssg70
g885
sg63
(lp896
S':'
asbag56
(g77
g58
NtRp897
(dp898
g61
(dp899
sg70
g885
sg63
(lp900
g56
(g57
g58
NtRp901
(dp902
g61
(dp903
g69
I3
ssg70
g897
sg63
(lp904
S''
asbasbasbag56
(g72
g58
NtRp905
(dp906
g61
(dp907
sg70
g821
sg63
(lp908
g56
(g77
g58
NtRp909
(dp910
g61
(dp911
g81
g82
ssg70
g905
sg63
(lp912
g354
asbag56
(g77
g58
NtRp913
(dp914
g61
(dp915
g88
g89
ssg70
g905
sg63
(lp916
S':'
asbag56
(g77
g58
NtRp917
(dp918
g61
(dp919
sg70
g905
sg63
(lp920
g56
(g57
g58
NtRp921
(dp922
g61
(dp923
g69
I3
ssg70
g917
sg63
(lp924
S''
asbasbasbag56
(g72
g58
NtRp925
(dp926
g61
(dp927
sg70
g821
sg63
(lp928
g56
(g77
g58
NtRp929
(dp930
g61
(dp931
g81
g82
ssg70
g925
sg63
(lp932
g375
asbag56
(g77
g58
NtRp933
(dp934
g61
(dp935
g88
g89
ssg70
g925
sg63
(lp936
S':'
asbag56
(g77
g58
NtRp937
(dp938
g61
(dp939
sg70
g925
sg63
(lp940
g56
(g57
g58
NtRp941
(dp942
g61
(dp943
g69
I3
ssg70
g937
sg63
(lp944
S''
asbasbasbag56
(g72
g58
NtRp945
(dp946
g61
(dp947
sg70
g821
sg63
(lp948
g56
(g77
g58
NtRp949
(dp950
g61
(dp951
g81
g82
ssg70
g945
sg63
(lp952
g396
asbag56
(g77
g58
NtRp953
(dp954
g61
(dp955
g88
g89
ssg70
g945
sg63
(lp956
S':'
asbag56
(g77
g58
NtRp957
(dp958
g61
(dp959
sg70
g945
sg63
(lp960
g56
(g57
g58
NtRp961
(dp962
g61
(dp963
g69
I3
ssg70
g957
sg63
(lp964
S''
asbasbasbag56
(g72
g58
NtRp965
(dp966
g61
(dp967
sg70
g821
sg63
(lp968
g56
(g77
g58
NtRp969
(dp970
g61
(dp971
g81
g82
ssg70
g965
sg63
(lp972
g417
asbag56
(g77
g58
NtRp973
(dp974
g61
(dp975
g88
g89
ssg70
g965
sg63
(lp976
S':'
asbag56
(g77
g58
NtRp977
(dp978
g61
(dp979
sg70
g965
sg63
(lp980
g56
(g57
g58
NtRp981
(dp982
g61
(dp983
g69
I3
ssg70
g977
sg63
(lp984
S''
asbasbasbasbasbasbasbasbasbasbasbag56
(g72
g58
NtRp985
(dp986
g61
(dp987
sg70
g66
sg63
(lp988
g56
(g77
g58
NtRp989
(dp990
g61
(dp991
g81
g82
ssg70
g985
sg63
(lp992
S'env'
p993
asbag56
(g77
g58
NtRp994
(dp995
g61
(dp996
g88
g89
ssg70
g985
sg63
(lp997
S':'
asbag56
(g77
g58
NtRp998
(dp999
g61
(dp1000
sg70
g985
sg63
(lp1001
g56
(g57
g58
NtRp1002
(dp1003
g61
(dp1004
g69
I5
ssg70
g998
sg63
(lp1005
g56
(g65
g58
NtRp1006
(dp1007
g61
(dp1008
g69
I4
ssg70
Nsg63
(lp1009
g56
(g72
g58
NtRp1010
(dp1011
g61
(dp1012
sg70
g1006
sg63
(lp1013
g56
(g77
g58
NtRp1014
(dp1015
g61
(dp1016
g81
g82
ssg70
g1010
sg63
(lp1017
S'app_folders'
p1018
asbag56
(g77
g58
NtRp1019
(dp1020
g61
(dp1021
g88
g89
ssg70
g1010
sg63
(lp1022
S':'
asbag56
(g77
g58
NtRp1023
(dp1024
g61
(dp1025
sg70
g1010
sg63
(lp1026
g56
(g57
g58
NtRp1027
(dp1028
g61
(dp1029
g69
I4
ssg70
g1023
sg63
(lp1030
S"set(['/home/strzel-a/web2py/applications/admin/', '/home/strzel-a/web2py/applications/Skytoop/', '/home/strzel-a/web2py/applications/shamebook/', '/home/strzel-a/web2py/applications/noctuagui/'])"
p1031
asbasbasbag56
(g72
g58
NtRp1032
(dp1033
g61
(dp1034
sg70
g1006
sg63
(lp1035
g56
(g77
g58
NtRp1036
(dp1037
g61
(dp1038
g81
g82
ssg70
g1032
sg63
(lp1039
S'applications_parent'
p1040
asbag56
(g77
g58
NtRp1041
(dp1042
g61
(dp1043
g88
g89
ssg70
g1032
sg63
(lp1044
S':'
asbag56
(g77
g58
NtRp1045
(dp1046
g61
(dp1047
sg70
g1032
sg63
(lp1048
g56
(g57
g58
NtRp1049
(dp1050
g61
(dp1051
g69
I4
ssg70
g1045
sg63
(lp1052
S'/home/strzel-a/web2py'
p1053
asbasbasbag56
(g72
g58
NtRp1054
(dp1055
g61
(dp1056
sg70
g1006
sg63
(lp1057
g56
(g77
g58
NtRp1058
(dp1059
g61
(dp1060
g81
g82
ssg70
g1054
sg63
(lp1061
S'cmd_args'
p1062
asbag56
(g77
g58
NtRp1063
(dp1064
g61
(dp1065
g88
g89
ssg70
g1054
sg63
(lp1066
S':'
asbag56
(g77
g58
NtRp1067
(dp1068
g61
(dp1069
sg70
g1054
sg63
(lp1070
g56
(g57
g58
NtRp1071
(dp1072
g61
(dp1073
g69
I4
ssg70
g1067
sg63
(lp1074
g56
(g65
g58
NtRp1075
(dp1076
g61
(dp1077
g69
I3
ssg70
Nsg63
(lp1078
sbasbasbasbag56
(g72
g58
NtRp1079
(dp1080
g61
(dp1081
sg70
g1006
sg63
(lp1082
g56
(g77
g58
NtRp1083
(dp1084
g61
(dp1085
g81
g82
ssg70
g1079
sg63
(lp1086
S'cmd_options'
p1087
asbag56
(g77
g58
NtRp1088
(dp1089
g61
(dp1090
g88
g89
ssg70
g1079
sg63
(lp1091
S':'
asbag56
(g77
g58
NtRp1092
(dp1093
g61
(dp1094
sg70
g1079
sg63
(lp1095
g56
(g57
g58
NtRp1096
(dp1097
g61
(dp1098
g69
I4
ssg70
g1092
sg63
(lp1099
S"<Values at 0x223b128: {'verbose': False, 'ip': '127.0.0.1', 'shutdown_timeout': 5, 'taskbar': False, 'port': 8000, 'maxthreads': None, 'softcron': False, 'server_name': 'Hemca-Home', 'bpython': False, 'nogui': False, 'nocron': False, 'extcron': False, 'debuglevel': 30, 'test': None, 'folder': '/home/strzel-a/web2py', 'config': '', 'import_models': False, 'winservice': '', 'shell': None, 'run': '', 'log_filename': 'httpserver.log', 'args': [''], 'profiler_filename': None, 'ssl_private_key': '', 'password': '123456', 'request_queue_size': 5, 'ssl_certificate': '', 'cronjob': False, 'plain': False, 'quiet': False, 'interfaces': None, 'minthreads': None, 'timeout': 10, 'numthreads': None, 'pid_filename': 'httpserver.pid'}>"
p1100
asbasbasbag56
(g72
g58
NtRp1101
(dp1102
g61
(dp1103
sg70
g1006
sg63
(lp1104
g56
(g77
g58
NtRp1105
(dp1106
g61
(dp1107
g81
g82
ssg70
g1101
sg63
(lp1108
S'db_sessions'
p1109
asbag56
(g77
g58
NtRp1110
(dp1111
g61
(dp1112
g88
g89
ssg70
g1101
sg63
(lp1113
S':'
asbag56
(g77
g58
NtRp1114
(dp1115
g61
(dp1116
sg70
g1101
sg63
(lp1117
g56
(g57
g58
NtRp1118
(dp1119
g61
(dp1120
g69
I4
ssg70
g1114
sg63
(lp1121
S'set([])'
p1122
asbasbasbag56
(g72
g58
NtRp1123
(dp1124
g61
(dp1125
sg70
g1006
sg63
(lp1126
g56
(g77
g58
NtRp1127
(dp1128
g61
(dp1129
g81
g82
ssg70
g1123
sg63
(lp1130
S'debugging'
p1131
asbag56
(g77
g58
NtRp1132
(dp1133
g61
(dp1134
g88
g89
ssg70
g1123
sg63
(lp1135
S':'
asbag56
(g77
g58
NtRp1136
(dp1137
g61
(dp1138
sg70
g1123
sg63
(lp1139
g56
(g57
g58
NtRp1140
(dp1141
g61
(dp1142
g69
I4
ssg70
g1136
sg63
(lp1143
g99
asbasbasbag56
(g72
g58
NtRp1144
(dp1145
g61
(dp1146
sg70
g1006
sg63
(lp1147
g56
(g77
g58
NtRp1148
(dp1149
g61
(dp1150
g81
g82
ssg70
g1144
sg63
(lp1151
S'gluon_parent'
p1152
asbag56
(g77
g58
NtRp1153
(dp1154
g61
(dp1155
g88
g89
ssg70
g1144
sg63
(lp1156
S':'
asbag56
(g77
g58
NtRp1157
(dp1158
g61
(dp1159
sg70
g1144
sg63
(lp1160
g56
(g57
g58
NtRp1161
(dp1162
g61
(dp1163
g69
I4
ssg70
g1157
sg63
(lp1164
S'/home/strzel-a/web2py'
p1165
asbasbasbag56
(g72
g58
NtRp1166
(dp1167
g61
(dp1168
sg70
g1006
sg63
(lp1169
g56
(g77
g58
NtRp1170
(dp1171
g61
(dp1172
g81
g82
ssg70
g1166
sg63
(lp1173
S'http_accept'
p1174
asbag56
(g77
g58
NtRp1175
(dp1176
g61
(dp1177
g88
g89
ssg70
g1166
sg63
(lp1178
S':'
asbag56
(g77
g58
NtRp1179
(dp1180
g61
(dp1181
sg70
g1166
sg63
(lp1182
g56
(g57
g58
NtRp1183
(dp1184
g61
(dp1185
g69
I4
ssg70
g1179
sg63
(lp1186
S'application/xml,application/xhtml+xml,text/html;q=0.9,text/plain;q=0.8,image/png,*/*;q=0.5'
p1187
asbasbasbag56
(g72
g58
NtRp1188
(dp1189
g61
(dp1190
sg70
g1006
sg63
(lp1191
g56
(g77
g58
NtRp1192
(dp1193
g61
(dp1194
g81
g82
ssg70
g1188
sg63
(lp1195
S'http_accept_charset'
p1196
asbag56
(g77
g58
NtRp1197
(dp1198
g61
(dp1199
g88
g89
ssg70
g1188
sg63
(lp1200
S':'
asbag56
(g77
g58
NtRp1201
(dp1202
g61
(dp1203
sg70
g1188
sg63
(lp1204
g56
(g57
g58
NtRp1205
(dp1206
g61
(dp1207
g69
I4
ssg70
g1201
sg63
(lp1208
S'ISO-8859-1,utf-8;q=0.7,*;q=0.3'
p1209
asbasbasbag56
(g72
g58
NtRp1210
(dp1211
g61
(dp1212
sg70
g1006
sg63
(lp1213
g56
(g77
g58
NtRp1214
(dp1215
g61
(dp1216
g81
g82
ssg70
g1210
sg63
(lp1217
S'http_accept_encoding'
p1218
asbag56
(g77
g58
NtRp1219
(dp1220
g61
(dp1221
g88
g89
ssg70
g1210
sg63
(lp1222
S':'
asbag56
(g77
g58
NtRp1223
(dp1224
g61
(dp1225
sg70
g1210
sg63
(lp1226
g56
(g57
g58
NtRp1227
(dp1228
g61
(dp1229
g69
I4
ssg70
g1223
sg63
(lp1230
S'gzip,deflate,sdch'
p1231
asbasbasbag56
(g72
g58
NtRp1232
(dp1233
g61
(dp1234
sg70
g1006
sg63
(lp1235
g56
(g77
g58
NtRp1236
(dp1237
g61
(dp1238
g81
g82
ssg70
g1232
sg63
(lp1239
S'http_accept_language'
p1240
asbag56
(g77
g58
NtRp1241
(dp1242
g61
(dp1243
g88
g89
ssg70
g1232
sg63
(lp1244
S':'
asbag56
(g77
g58
NtRp1245
(dp1246
g61
(dp1247
sg70
g1232
sg63
(lp1248
g56
(g57
g58
NtRp1249
(dp1250
g61
(dp1251
g69
I4
ssg70
g1245
sg63
(lp1252
S'en-US,en;q=0.8,fr;q=0.6'
p1253
asbasbasbag56
(g72
g58
NtRp1254
(dp1255
g61
(dp1256
sg70
g1006
sg63
(lp1257
g56
(g77
g58
NtRp1258
(dp1259
g61
(dp1260
g81
g82
ssg70
g1254
sg63
(lp1261
S'http_cache_control'
p1262
asbag56
(g77
g58
NtRp1263
(dp1264
g61
(dp1265
g88
g89
ssg70
g1254
sg63
(lp1266
S':'
asbag56
(g77
g58
NtRp1267
(dp1268
g61
(dp1269
sg70
g1254
sg63
(lp1270
g56
(g57
g58
NtRp1271
(dp1272
g61
(dp1273
g69
I4
ssg70
g1267
sg63
(lp1274
S'max-age=0'
p1275
asbasbasbag56
(g72
g58
NtRp1276
(dp1277
g61
(dp1278
sg70
g1006
sg63
(lp1279
g56
(g77
g58
NtRp1280
(dp1281
g61
(dp1282
g81
g82
ssg70
g1276
sg63
(lp1283
S'http_connection'
p1284
asbag56
(g77
g58
NtRp1285
(dp1286
g61
(dp1287
g88
g89
ssg70
g1276
sg63
(lp1288
S':'
asbag56
(g77
g58
NtRp1289
(dp1290
g61
(dp1291
sg70
g1276
sg63
(lp1292
g56
(g57
g58
NtRp1293
(dp1294
g61
(dp1295
g69
I4
ssg70
g1289
sg63
(lp1296
S'keep-alive'
p1297
asbasbasbag56
(g72
g58
NtRp1298
(dp1299
g61
(dp1300
sg70
g1006
sg63
(lp1301
g56
(g77
g58
NtRp1302
(dp1303
g61
(dp1304
g81
g82
ssg70
g1298
sg63
(lp1305
S'http_cookie'
p1306
asbag56
(g77
g58
NtRp1307
(dp1308
g61
(dp1309
g88
g89
ssg70
g1298
sg63
(lp1310
S':'
asbag56
(g77
g58
NtRp1311
(dp1312
g61
(dp1313
sg70
g1298
sg63
(lp1314
g56
(g57
g58
NtRp1315
(dp1316
g61
(dp1317
g69
I4
ssg70
g1311
sg63
(lp1318
S'session_id_noctuagui=127.0.0.1-83949e7c-8d22-40a9-b51e-df9f4eacad1f; session_id_shamebook=127.0.0.1-fb1dcfea-6d58-4ac6-a996-c3aac951c421; session_id_admin=127.0.0.1-4139cae1-081f-4e88-a395-bee44fbab781; session_id_skytoop=127.0.0.1-80367999-125c-402b-a380-445ac9807f4e'
p1319
asbasbasbag56
(g72
g58
NtRp1320
(dp1321
g61
(dp1322
sg70
g1006
sg63
(lp1323
g56
(g77
g58
NtRp1324
(dp1325
g61
(dp1326
g81
g82
ssg70
g1320
sg63
(lp1327
S'http_host'
p1328
asbag56
(g77
g58
NtRp1329
(dp1330
g61
(dp1331
g88
g89
ssg70
g1320
sg63
(lp1332
S':'
asbag56
(g77
g58
NtRp1333
(dp1334
g61
(dp1335
sg70
g1320
sg63
(lp1336
g56
(g57
g58
NtRp1337
(dp1338
g61
(dp1339
g69
I4
ssg70
g1333
sg63
(lp1340
S'localhost:8000'
p1341
asbasbasbag56
(g72
g58
NtRp1342
(dp1343
g61
(dp1344
sg70
g1006
sg63
(lp1345
g56
(g77
g58
NtRp1346
(dp1347
g61
(dp1348
g81
g82
ssg70
g1342
sg63
(lp1349
S'http_user_agent'
p1350
asbag56
(g77
g58
NtRp1351
(dp1352
g61
(dp1353
g88
g89
ssg70
g1342
sg63
(lp1354
S':'
asbag56
(g77
g58
NtRp1355
(dp1356
g61
(dp1357
sg70
g1342
sg63
(lp1358
g56
(g57
g58
NtRp1359
(dp1360
g61
(dp1361
g69
I4
ssg70
g1355
sg63
(lp1362
S'Mozilla/5.0 (X11; Linux x86_64) AppleWebKit/534.24 (KHTML, like Gecko) Ubuntu/11.04 Chromium/11.0.696.65 Chrome/11.0.696.65 Safari/534.24'
p1363
asbasbasbag56
(g72
g58
NtRp1364
(dp1365
g61
(dp1366
sg70
g1006
sg63
(lp1367
g56
(g77
g58
NtRp1368
(dp1369
g61
(dp1370
g81
g82
ssg70
g1364
sg63
(lp1371
S'path_info'
p1372
asbag56
(g77
g58
NtRp1373
(dp1374
g61
(dp1375
g88
g89
ssg70
g1364
sg63
(lp1376
S':'
asbag56
(g77
g58
NtRp1377
(dp1378
g61
(dp1379
sg70
g1364
sg63
(lp1380
g56
(g57
g58
NtRp1381
(dp1382
g61
(dp1383
g69
I4
ssg70
g1377
sg63
(lp1384
S'/Skytoop/default/create_user'
p1385
asbasbasbag56
(g72
g58
NtRp1386
(dp1387
g61
(dp1388
sg70
g1006
sg63
(lp1389
g56
(g77
g58
NtRp1390
(dp1391
g61
(dp1392
g81
g82
ssg70
g1386
sg63
(lp1393
S'query_string'
p1394
asbag56
(g77
g58
NtRp1395
(dp1396
g61
(dp1397
g88
g89
ssg70
g1386
sg63
(lp1398
S':'
asbag56
(g77
g58
NtRp1399
(dp1400
g61
(dp1401
sg70
g1386
sg63
(lp1402
g56
(g57
g58
NtRp1403
(dp1404
g61
(dp1405
g69
I4
ssg70
g1399
sg63
(lp1406
S''
asbasbasbag56
(g72
g58
NtRp1407
(dp1408
g61
(dp1409
sg70
g1006
sg63
(lp1410
g56
(g77
g58
NtRp1411
(dp1412
g61
(dp1413
g81
g82
ssg70
g1407
sg63
(lp1414
S'remote_addr'
p1415
asbag56
(g77
g58
NtRp1416
(dp1417
g61
(dp1418
g88
g89
ssg70
g1407
sg63
(lp1419
S':'
asbag56
(g77
g58
NtRp1420
(dp1421
g61
(dp1422
sg70
g1407
sg63
(lp1423
g56
(g57
g58
NtRp1424
(dp1425
g61
(dp1426
g69
I4
ssg70
g1420
sg63
(lp1427
g189
asbasbasbag56
(g72
g58
NtRp1428
(dp1429
g61
(dp1430
sg70
g1006
sg63
(lp1431
g56
(g77
g58
NtRp1432
(dp1433
g61
(dp1434
g81
g82
ssg70
g1428
sg63
(lp1435
S'remote_port'
p1436
asbag56
(g77
g58
NtRp1437
(dp1438
g61
(dp1439
g88
g89
ssg70
g1428
sg63
(lp1440
S':'
asbag56
(g77
g58
NtRp1441
(dp1442
g61
(dp1443
sg70
g1428
sg63
(lp1444
g56
(g57
g58
NtRp1445
(dp1446
g61
(dp1447
g69
I4
ssg70
g1441
sg63
(lp1448
S'34433'
p1449
asbasbasbag56
(g72
g58
NtRp1450
(dp1451
g61
(dp1452
sg70
g1006
sg63
(lp1453
g56
(g77
g58
NtRp1454
(dp1455
g61
(dp1456
g81
g82
ssg70
g1450
sg63
(lp1457
S'request_method'
p1458
asbag56
(g77
g58
NtRp1459
(dp1460
g61
(dp1461
g88
g89
ssg70
g1450
sg63
(lp1462
S':'
asbag56
(g77
g58
NtRp1463
(dp1464
g61
(dp1465
sg70
g1450
sg63
(lp1466
g56
(g57
g58
NtRp1467
(dp1468
g61
(dp1469
g69
I4
ssg70
g1463
sg63
(lp1470
S'GET'
p1471
asbasbasbag56
(g72
g58
NtRp1472
(dp1473
g61
(dp1474
sg70
g1006
sg63
(lp1475
g56
(g77
g58
NtRp1476
(dp1477
g61
(dp1478
g81
g82
ssg70
g1472
sg63
(lp1479
S'script_name'
p1480
asbag56
(g77
g58
NtRp1481
(dp1482
g61
(dp1483
g88
g89
ssg70
g1472
sg63
(lp1484
S':'
asbag56
(g77
g58
NtRp1485
(dp1486
g61
(dp1487
sg70
g1472
sg63
(lp1488
g56
(g57
g58
NtRp1489
(dp1490
g61
(dp1491
g69
I4
ssg70
g1485
sg63
(lp1492
S''
asbasbasbag56
(g72
g58
NtRp1493
(dp1494
g61
(dp1495
sg70
g1006
sg63
(lp1496
g56
(g77
g58
NtRp1497
(dp1498
g61
(dp1499
g81
g82
ssg70
g1493
sg63
(lp1500
S'server_name'
p1501
asbag56
(g77
g58
NtRp1502
(dp1503
g61
(dp1504
g88
g89
ssg70
g1493
sg63
(lp1505
S':'
asbag56
(g77
g58
NtRp1506
(dp1507
g61
(dp1508
sg70
g1493
sg63
(lp1509
g56
(g57
g58
NtRp1510
(dp1511
g61
(dp1512
g69
I4
ssg70
g1506
sg63
(lp1513
S'Hemca-Home'
p1514
asbasbasbag56
(g72
g58
NtRp1515
(dp1516
g61
(dp1517
sg70
g1006
sg63
(lp1518
g56
(g77
g58
NtRp1519
(dp1520
g61
(dp1521
g81
g82
ssg70
g1515
sg63
(lp1522
S'server_port'
p1523
asbag56
(g77
g58
NtRp1524
(dp1525
g61
(dp1526
g88
g89
ssg70
g1515
sg63
(lp1527
S':'
asbag56
(g77
g58
NtRp1528
(dp1529
g61
(dp1530
sg70
g1515
sg63
(lp1531
g56
(g57
g58
NtRp1532
(dp1533
g61
(dp1534
g69
I4
ssg70
g1528
sg63
(lp1535
S'8000'
p1536
asbasbasbag56
(g72
g58
NtRp1537
(dp1538
g61
(dp1539
sg70
g1006
sg63
(lp1540
g56
(g77
g58
NtRp1541
(dp1542
g61
(dp1543
g81
g82
ssg70
g1537
sg63
(lp1544
S'server_protocol'
p1545
asbag56
(g77
g58
NtRp1546
(dp1547
g61
(dp1548
g88
g89
ssg70
g1537
sg63
(lp1549
S':'
asbag56
(g77
g58
NtRp1550
(dp1551
g61
(dp1552
sg70
g1537
sg63
(lp1553
g56
(g57
g58
NtRp1554
(dp1555
g61
(dp1556
g69
I4
ssg70
g1550
sg63
(lp1557
S'HTTP/1.1'
p1558
asbasbasbag56
(g72
g58
NtRp1559
(dp1560
g61
(dp1561
sg70
g1006
sg63
(lp1562
g56
(g77
g58
NtRp1563
(dp1564
g61
(dp1565
g81
g82
ssg70
g1559
sg63
(lp1566
S'server_software'
p1567
asbag56
(g77
g58
NtRp1568
(dp1569
g61
(dp1570
g88
g89
ssg70
g1559
sg63
(lp1571
S':'
asbag56
(g77
g58
NtRp1572
(dp1573
g61
(dp1574
sg70
g1559
sg63
(lp1575
g56
(g57
g58
NtRp1576
(dp1577
g61
(dp1578
g69
I4
ssg70
g1572
sg63
(lp1579
S'Rocket 1.2.2'
p1580
asbasbasbag56
(g72
g58
NtRp1581
(dp1582
g61
(dp1583
sg70
g1006
sg63
(lp1584
g56
(g77
g58
NtRp1585
(dp1586
g61
(dp1587
g81
g82
ssg70
g1581
sg63
(lp1588
S'web2py_crontype'
p1589
asbag56
(g77
g58
NtRp1590
(dp1591
g61
(dp1592
g88
g89
ssg70
g1581
sg63
(lp1593
S':'
asbag56
(g77
g58
NtRp1594
(dp1595
g61
(dp1596
sg70
g1581
sg63
(lp1597
g56
(g57
g58
NtRp1598
(dp1599
g61
(dp1600
g69
I4
ssg70
g1594
sg63
(lp1601
S'hard'
p1602
asbasbasbag56
(g72
g58
NtRp1603
(dp1604
g61
(dp1605
sg70
g1006
sg63
(lp1606
g56
(g77
g58
NtRp1607
(dp1608
g61
(dp1609
g81
g82
ssg70
g1603
sg63
(lp1610
S'web2py_path'
p1611
asbag56
(g77
g58
NtRp1612
(dp1613
g61
(dp1614
g88
g89
ssg70
g1603
sg63
(lp1615
S':'
asbag56
(g77
g58
NtRp1616
(dp1617
g61
(dp1618
sg70
g1603
sg63
(lp1619
g56
(g57
g58
NtRp1620
(dp1621
g61
(dp1622
g69
I4
ssg70
g1616
sg63
(lp1623
g1053
asbasbasbag56
(g72
g58
NtRp1624
(dp1625
g61
(dp1626
sg70
g1006
sg63
(lp1627
g56
(g77
g58
NtRp1628
(dp1629
g61
(dp1630
g81
g82
ssg70
g1624
sg63
(lp1631
S'web2py_version'
p1632
asbag56
(g77
g58
NtRp1633
(dp1634
g61
(dp1635
g88
g89
ssg70
g1624
sg63
(lp1636
S':'
asbag56
(g77
g58
NtRp1637
(dp1638
g61
(dp1639
sg70
g1624
sg63
(lp1640
g56
(g57
g58
NtRp1641
(dp1642
g61
(dp1643
g69
I4
ssg70
g1637
sg63
(lp1644
S'Version 1.95.1 (2011-04-25 15:04:14)\n'
p1645
asbasbasbag56
(g72
g58
NtRp1646
(dp1647
g61
(dp1648
sg70
g1006
sg63
(lp1649
g56
(g77
g58
NtRp1650
(dp1651
g61
(dp1652
g81
g82
ssg70
g1646
sg63
(lp1653
S'wsgi_errors'
p1654
asbag56
(g77
g58
NtRp1655
(dp1656
g61
(dp1657
g88
g89
ssg70
g1646
sg63
(lp1658
S':'
asbag56
(g77
g58
NtRp1659
(dp1660
g61
(dp1661
sg70
g1646
sg63
(lp1662
g56
(g57
g58
NtRp1663
(dp1664
g61
(dp1665
g69
I4
ssg70
g1659
sg63
(lp1666
S"<open file '<stderr>', mode 'w' at 0x7ff5df960270>"
p1667
asbasbasbag56
(g72
g58
NtRp1668
(dp1669
g61
(dp1670
sg70
g1006
sg63
(lp1671
g56
(g77
g58
NtRp1672
(dp1673
g61
(dp1674
g81
g82
ssg70
g1668
sg63
(lp1675
S'wsgi_file_wrapper'
p1676
asbag56
(g77
g58
NtRp1677
(dp1678
g61
(dp1679
g88
g89
ssg70
g1668
sg63
(lp1680
S':'
asbag56
(g77
g58
NtRp1681
(dp1682
g61
(dp1683
sg70
g1668
sg63
(lp1684
g56
(g57
g58
NtRp1685
(dp1686
g61
(dp1687
g69
I4
ssg70
g1681
sg63
(lp1688
S'<class gluon.rocket.FileWrapper at 0x21539a8>'
p1689
asbasbasbag56
(g72
g58
NtRp1690
(dp1691
g61
(dp1692
sg70
g1006
sg63
(lp1693
g56
(g77
g58
NtRp1694
(dp1695
g61
(dp1696
g81
g82
ssg70
g1690
sg63
(lp1697
S'wsgi_input'
p1698
asbag56
(g77
g58
NtRp1699
(dp1700
g61
(dp1701
g88
g89
ssg70
g1690
sg63
(lp1702
S':'
asbag56
(g77
g58
NtRp1703
(dp1704
g61
(dp1705
sg70
g1690
sg63
(lp1706
g56
(g57
g58
NtRp1707
(dp1708
g61
(dp1709
g69
I4
ssg70
g1703
sg63
(lp1710
S'<socket._fileobject object at 0x3242450>'
p1711
asbasbasbag56
(g72
g58
NtRp1712
(dp1713
g61
(dp1714
sg70
g1006
sg63
(lp1715
g56
(g77
g58
NtRp1716
(dp1717
g61
(dp1718
g81
g82
ssg70
g1712
sg63
(lp1719
S'wsgi_multiprocess'
p1720
asbag56
(g77
g58
NtRp1721
(dp1722
g61
(dp1723
g88
g89
ssg70
g1712
sg63
(lp1724
S':'
asbag56
(g77
g58
NtRp1725
(dp1726
g61
(dp1727
sg70
g1712
sg63
(lp1728
g56
(g57
g58
NtRp1729
(dp1730
g61
(dp1731
g69
I4
ssg70
g1725
sg63
(lp1732
g99
asbasbasbag56
(g72
g58
NtRp1733
(dp1734
g61
(dp1735
sg70
g1006
sg63
(lp1736
g56
(g77
g58
NtRp1737
(dp1738
g61
(dp1739
g81
g82
ssg70
g1733
sg63
(lp1740
S'wsgi_multithread'
p1741
asbag56
(g77
g58
NtRp1742
(dp1743
g61
(dp1744
g88
g89
ssg70
g1733
sg63
(lp1745
S':'
asbag56
(g77
g58
NtRp1746
(dp1747
g61
(dp1748
sg70
g1733
sg63
(lp1749
g56
(g57
g58
NtRp1750
(dp1751
g61
(dp1752
g69
I4
ssg70
g1746
sg63
(lp1753
S'True'
p1754
asbasbasbag56
(g72
g58
NtRp1755
(dp1756
g61
(dp1757
sg70
g1006
sg63
(lp1758
g56
(g77
g58
NtRp1759
(dp1760
g61
(dp1761
g81
g82
ssg70
g1755
sg63
(lp1762
S'wsgi_run_once'
p1763
asbag56
(g77
g58
NtRp1764
(dp1765
g61
(dp1766
g88
g89
ssg70
g1755
sg63
(lp1767
S':'
asbag56
(g77
g58
NtRp1768
(dp1769
g61
(dp1770
sg70
g1755
sg63
(lp1771
g56
(g57
g58
NtRp1772
(dp1773
g61
(dp1774
g69
I4
ssg70
g1768
sg63
(lp1775
g99
asbasbasbag56
(g72
g58
NtRp1776
(dp1777
g61
(dp1778
sg70
g1006
sg63
(lp1779
g56
(g77
g58
NtRp1780
(dp1781
g61
(dp1782
g81
g82
ssg70
g1776
sg63
(lp1783
S'wsgi_url_scheme'
p1784
asbag56
(g77
g58
NtRp1785
(dp1786
g61
(dp1787
g88
g89
ssg70
g1776
sg63
(lp1788
S':'
asbag56
(g77
g58
NtRp1789
(dp1790
g61
(dp1791
sg70
g1776
sg63
(lp1792
g56
(g57
g58
NtRp1793
(dp1794
g61
(dp1795
g69
I4
ssg70
g1789
sg63
(lp1796
S'http'
p1797
asbasbasbag56
(g72
g58
NtRp1798
(dp1799
g61
(dp1800
sg70
g1006
sg63
(lp1801
g56
(g77
g58
NtRp1802
(dp1803
g61
(dp1804
g81
g82
ssg70
g1798
sg63
(lp1805
S'wsgi_version'
p1806
asbag56
(g77
g58
NtRp1807
(dp1808
g61
(dp1809
g88
g89
ssg70
g1798
sg63
(lp1810
S':'
asbag56
(g77
g58
NtRp1811
(dp1812
g61
(dp1813
sg70
g1798
sg63
(lp1814
g56
(g57
g58
NtRp1815
(dp1816
g61
(dp1817
g69
I4
ssg70
g1811
sg63
(lp1818
g56
(g65
g58
NtRp1819
(dp1820
g61
(dp1821
g69
I3
ssg70
Nsg63
(lp1822
g56
(g72
g58
NtRp1823
(dp1824
g61
(dp1825
sg70
g1819
sg63
(lp1826
g56
(g77
g58
NtRp1827
(dp1828
g61
(dp1829
sg70
g1823
sg63
(lp1830
g56
(g57
g58
NtRp1831
(dp1832
g61
(dp1833
g69
I3
ssg70
g1827
sg63
(lp1834
S'1'
asbasbasbag56
(g72
g58
NtRp1835
(dp1836
g61
(dp1837
sg70
g1819
sg63
(lp1838
g56
(g77
g58
NtRp1839
(dp1840
g61
(dp1841
sg70
g1835
sg63
(lp1842
g56
(g57
g58
NtRp1843
(dp1844
g61
(dp1845
g69
I3
ssg70
g1839
sg63
(lp1846
S'0'
asbasbasbasbasbasbasbasbasbasbasbag56
(g72
g58
NtRp1847
(dp1848
g61
(dp1849
sg70
g66
sg63
(lp1850
g56
(g77
g58
NtRp1851
(dp1852
g61
(dp1853
g81
g82
ssg70
g1847
sg63
(lp1854
S'extension'
p1855
asbag56
(g77
g58
NtRp1856
(dp1857
g61
(dp1858
g88
g89
ssg70
g1847
sg63
(lp1859
S':'
asbag56
(g77
g58
NtRp1860
(dp1861
g61
(dp1862
sg70
g1847
sg63
(lp1863
g56
(g57
g58
NtRp1864
(dp1865
g61
(dp1866
g69
I5
ssg70
g1860
sg63
(lp1867
S'html'
p1868
asbasbasbag56
(g72
g58
NtRp1869
(dp1870
g61
(dp1871
sg70
g66
sg63
(lp1872
g56
(g77
g58
NtRp1873
(dp1874
g61
(dp1875
g81
g82
ssg70
g1869
sg63
(lp1876
S'folder'
p1877
asbag56
(g77
g58
NtRp1878
(dp1879
g61
(dp1880
g88
g89
ssg70
g1869
sg63
(lp1881
S':'
asbag56
(g77
g58
NtRp1882
(dp1883
g61
(dp1884
sg70
g1869
sg63
(lp1885
g56
(g57
g58
NtRp1886
(dp1887
g61
(dp1888
g69
I5
ssg70
g1882
sg63
(lp1889
S'/home/strzel-a/web2py/applications/Skytoop/'
p1890
asbasbasbag56
(g72
g58
NtRp1891
(dp1892
g61
(dp1893
sg70
g66
sg63
(lp1894
g56
(g77
g58
NtRp1895
(dp1896
g61
(dp1897
g81
g82
ssg70
g1891
sg63
(lp1898
S'function'
p1899
asbag56
(g77
g58
NtRp1900
(dp1901
g61
(dp1902
g88
g89
ssg70
g1891
sg63
(lp1903
S':'
asbag56
(g77
g58
NtRp1904
(dp1905
g61
(dp1906
sg70
g1891
sg63
(lp1907
g56
(g57
g58
NtRp1908
(dp1909
g61
(dp1910
g69
I5
ssg70
g1904
sg63
(lp1911
S'create_user'
p1912
asbasbasbag56
(g72
g58
NtRp1913
(dp1914
g61
(dp1915
sg70
g66
sg63
(lp1916
g56
(g77
g58
NtRp1917
(dp1918
g61
(dp1919
g81
g82
ssg70
g1913
sg63
(lp1920
S'get_vars'
p1921
asbag56
(g77
g58
NtRp1922
(dp1923
g61
(dp1924
g88
g89
ssg70
g1913
sg63
(lp1925
S':'
asbag56
(g77
g58
NtRp1926
(dp1927
g61
(dp1928
sg70
g1913
sg63
(lp1929
g56
(g57
g58
NtRp1930
(dp1931
g61
(dp1932
g69
I5
ssg70
g1926
sg63
(lp1933
g56
(g65
g58
NtRp1934
(dp1935
g61
(dp1936
g69
I4
ssg70
Nsg63
(lp1937
sbasbasbasbag56
(g72
g58
NtRp1938
(dp1939
g61
(dp1940
sg70
g66
sg63
(lp1941
g56
(g77
g58
NtRp1942
(dp1943
g61
(dp1944
g81
g82
ssg70
g1938
sg63
(lp1945
S'is_restful'
p1946
asbag56
(g77
g58
NtRp1947
(dp1948
g61
(dp1949
g88
g89
ssg70
g1938
sg63
(lp1950
S':'
asbag56
(g77
g58
NtRp1951
(dp1952
g61
(dp1953
sg70
g1938
sg63
(lp1954
g56
(g57
g58
NtRp1955
(dp1956
g61
(dp1957
g69
I5
ssg70
g1951
sg63
(lp1958
g99
asbasbasbag56
(g72
g58
NtRp1959
(dp1960
g61
(dp1961
sg70
g66
sg63
(lp1962
g56
(g77
g58
NtRp1963
(dp1964
g61
(dp1965
g81
g82
ssg70
g1959
sg63
(lp1966
S'now'
p1967
asbag56
(g77
g58
NtRp1968
(dp1969
g61
(dp1970
g88
g89
ssg70
g1959
sg63
(lp1971
S':'
asbag56
(g77
g58
NtRp1972
(dp1973
g61
(dp1974
sg70
g1959
sg63
(lp1975
g56
(g57
g58
NtRp1976
(dp1977
g61
(dp1978
g69
I5
ssg70
g1972
sg63
(lp1979
S'datetime.datetime(2011, 5, 24, 22, 12, 10, 389046)'
p1980
asbasbasbag56
(g72
g58
NtRp1981
(dp1982
g61
(dp1983
sg70
g66
sg63
(lp1984
g56
(g77
g58
NtRp1985
(dp1986
g61
(dp1987
g81
g82
ssg70
g1981
sg63
(lp1988
S'post_vars'
p1989
asbag56
(g77
g58
NtRp1990
(dp1991
g61
(dp1992
g88
g89
ssg70
g1981
sg63
(lp1993
S':'
asbag56
(g77
g58
NtRp1994
(dp1995
g61
(dp1996
sg70
g1981
sg63
(lp1997
g56
(g57
g58
NtRp1998
(dp1999
g61
(dp2000
g69
I5
ssg70
g1994
sg63
(lp2001
g56
(g65
g58
NtRp2002
(dp2003
g61
(dp2004
g69
I4
ssg70
Nsg63
(lp2005
sbasbasbasbag56
(g72
g58
NtRp2006
(dp2007
g61
(dp2008
sg70
g66
sg63
(lp2009
g56
(g77
g58
NtRp2010
(dp2011
g61
(dp2012
g81
g82
ssg70
g2006
sg63
(lp2013
S'url'
p2014
asbag56
(g77
g58
NtRp2015
(dp2016
g61
(dp2017
g88
g89
ssg70
g2006
sg63
(lp2018
S':'
asbag56
(g77
g58
NtRp2019
(dp2020
g61
(dp2021
sg70
g2006
sg63
(lp2022
g56
(g57
g58
NtRp2023
(dp2024
g61
(dp2025
g69
I5
ssg70
g2019
sg63
(lp2026
S'/Skytoop/default/create_user'
p2027
asbasbasbag56
(g72
g58
NtRp2028
(dp2029
g61
(dp2030
sg70
g66
sg63
(lp2031
g56
(g77
g58
NtRp2032
(dp2033
g61
(dp2034
g81
g82
ssg70
g2028
sg63
(lp2035
S'uuid'
p2036
asbag56
(g77
g58
NtRp2037
(dp2038
g61
(dp2039
g88
g89
ssg70
g2028
sg63
(lp2040
S':'
asbag56
(g77
g58
NtRp2041
(dp2042
g61
(dp2043
sg70
g2028
sg63
(lp2044
g56
(g57
g58
NtRp2045
(dp2046
g61
(dp2047
g69
I5
ssg70
g2041
sg63
(lp2048
S'Skytoop/127.0.0.1.2011-05-24.22-12-10.9cd9a328-e515-49f6-81a9-c975d8155daf'
p2049
asbasbasbag56
(g72
g58
NtRp2050
(dp2051
g61
(dp2052
sg70
g66
sg63
(lp2053
g56
(g77
g58
NtRp2054
(dp2055
g61
(dp2056
g81
g82
ssg70
g2050
sg63
(lp2057
S'vars'
p2058
asbag56
(g77
g58
NtRp2059
(dp2060
g61
(dp2061
g88
g89
ssg70
g2050
sg63
(lp2062
S':'
asbag56
(g77
g58
NtRp2063
(dp2064
g61
(dp2065
sg70
g2050
sg63
(lp2066
g56
(g57
g58
NtRp2067
(dp2068
g61
(dp2069
g69
I5
ssg70
g2063
sg63
(lp2070
g56
(g65
g58
NtRp2071
(dp2072
g61
(dp2073
g69
I4
ssg70
Nsg63
(lp2074
sbasbasbasbag56
(g72
g58
NtRp2075
(dp2076
g61
(dp2077
sg70
g66
sg63
(lp2078
g56
(g77
g58
NtRp2079
(dp2080
g61
(dp2081
g81
g82
ssg70
g2075
sg63
(lp2082
S'wsgi'
p2083
asbag56
(g77
g58
NtRp2084
(dp2085
g61
(dp2086
g88
g89
ssg70
g2075
sg63
(lp2087
S':'
asbag56
(g77
g58
NtRp2088
(dp2089
g61
(dp2090
sg70
g2075
sg63
(lp2091
g56
(g57
g58
NtRp2092
(dp2093
g61
(dp2094
g69
I5
ssg70
g2088
sg63
(lp2095
g56
(g65
g58
NtRp2096
(dp2097
g61
(dp2098
g69
I4
ssg70
Nsg63
(lp2099
g56
(g72
g58
NtRp2100
(dp2101
g61
(dp2102
sg70
g2096
sg63
(lp2103
g56
(g77
g58
NtRp2104
(dp2105
g61
(dp2106
g81
g82
ssg70
g2100
sg63
(lp2107
S'environ'
p2108
asbag56
(g77
g58
NtRp2109
(dp2110
g61
(dp2111
g88
g89
ssg70
g2100
sg63
(lp2112
S':'
asbag56
(g77
g58
NtRp2113
(dp2114
g61
(dp2115
sg70
g2100
sg63
(lp2116
g56
(g57
g58
NtRp2117
(dp2118
g61
(dp2119
g69
I4
ssg70
g2113
sg63
(lp2120
g56
(g65
g58
NtRp2121
(dp2122
g61
(dp2123
g69
I3
ssg70
Nsg63
(lp2124
g56
(g72
g58
NtRp2125
(dp2126
g61
(dp2127
sg70
g2121
sg63
(lp2128
g56
(g77
g58
NtRp2129
(dp2130
g61
(dp2131
g81
g82
ssg70
g2125
sg63
(lp2132
S'HTTP_ACCEPT'
p2133
asbag56
(g77
g58
NtRp2134
(dp2135
g61
(dp2136
g88
g89
ssg70
g2125
sg63
(lp2137
S':'
asbag56
(g77
g58
NtRp2138
(dp2139
g61
(dp2140
sg70
g2125
sg63
(lp2141
g56
(g57
g58
NtRp2142
(dp2143
g61
(dp2144
g69
I3
ssg70
g2138
sg63
(lp2145
g1187
asbasbasbag56
(g72
g58
NtRp2146
(dp2147
g61
(dp2148
sg70
g2121
sg63
(lp2149
g56
(g77
g58
NtRp2150
(dp2151
g61
(dp2152
g81
g82
ssg70
g2146
sg63
(lp2153
S'HTTP_ACCEPT_CHARSET'
p2154
asbag56
(g77
g58
NtRp2155
(dp2156
g61
(dp2157
g88
g89
ssg70
g2146
sg63
(lp2158
S':'
asbag56
(g77
g58
NtRp2159
(dp2160
g61
(dp2161
sg70
g2146
sg63
(lp2162
g56
(g57
g58
NtRp2163
(dp2164
g61
(dp2165
g69
I3
ssg70
g2159
sg63
(lp2166
g1209
asbasbasbag56
(g72
g58
NtRp2167
(dp2168
g61
(dp2169
sg70
g2121
sg63
(lp2170
g56
(g77
g58
NtRp2171
(dp2172
g61
(dp2173
g81
g82
ssg70
g2167
sg63
(lp2174
S'HTTP_ACCEPT_ENCODING'
p2175
asbag56
(g77
g58
NtRp2176
(dp2177
g61
(dp2178
g88
g89
ssg70
g2167
sg63
(lp2179
S':'
asbag56
(g77
g58
NtRp2180
(dp2181
g61
(dp2182
sg70
g2167
sg63
(lp2183
g56
(g57
g58
NtRp2184
(dp2185
g61
(dp2186
g69
I3
ssg70
g2180
sg63
(lp2187
g1231
asbasbasbag56
(g72
g58
NtRp2188
(dp2189
g61
(dp2190
sg70
g2121
sg63
(lp2191
g56
(g77
g58
NtRp2192
(dp2193
g61
(dp2194
g81
g82
ssg70
g2188
sg63
(lp2195
S'HTTP_ACCEPT_LANGUAGE'
p2196
asbag56
(g77
g58
NtRp2197
(dp2198
g61
(dp2199
g88
g89
ssg70
g2188
sg63
(lp2200
S':'
asbag56
(g77
g58
NtRp2201
(dp2202
g61
(dp2203
sg70
g2188
sg63
(lp2204
g56
(g57
g58
NtRp2205
(dp2206
g61
(dp2207
g69
I3
ssg70
g2201
sg63
(lp2208
g1253
asbasbasbag56
(g72
g58
NtRp2209
(dp2210
g61
(dp2211
sg70
g2121
sg63
(lp2212
g56
(g77
g58
NtRp2213
(dp2214
g61
(dp2215
g81
g82
ssg70
g2209
sg63
(lp2216
S'HTTP_CACHE_CONTROL'
p2217
asbag56
(g77
g58
NtRp2218
(dp2219
g61
(dp2220
g88
g89
ssg70
g2209
sg63
(lp2221
S':'
asbag56
(g77
g58
NtRp2222
(dp2223
g61
(dp2224
sg70
g2209
sg63
(lp2225
g56
(g57
g58
NtRp2226
(dp2227
g61
(dp2228
g69
I3
ssg70
g2222
sg63
(lp2229
g1275
asbasbasbag56
(g72
g58
NtRp2230
(dp2231
g61
(dp2232
sg70
g2121
sg63
(lp2233
g56
(g77
g58
NtRp2234
(dp2235
g61
(dp2236
g81
g82
ssg70
g2230
sg63
(lp2237
S'HTTP_CONNECTION'
p2238
asbag56
(g77
g58
NtRp2239
(dp2240
g61
(dp2241
g88
g89
ssg70
g2230
sg63
(lp2242
S':'
asbag56
(g77
g58
NtRp2243
(dp2244
g61
(dp2245
sg70
g2230
sg63
(lp2246
g56
(g57
g58
NtRp2247
(dp2248
g61
(dp2249
g69
I3
ssg70
g2243
sg63
(lp2250
g1297
asbasbasbag56
(g72
g58
NtRp2251
(dp2252
g61
(dp2253
sg70
g2121
sg63
(lp2254
g56
(g77
g58
NtRp2255
(dp2256
g61
(dp2257
g81
g82
ssg70
g2251
sg63
(lp2258
S'HTTP_COOKIE'
p2259
asbag56
(g77
g58
NtRp2260
(dp2261
g61
(dp2262
g88
g89
ssg70
g2251
sg63
(lp2263
S':'
asbag56
(g77
g58
NtRp2264
(dp2265
g61
(dp2266
sg70
g2251
sg63
(lp2267
g56
(g57
g58
NtRp2268
(dp2269
g61
(dp2270
g69
I3
ssg70
g2264
sg63
(lp2271
g1319
asbasbasbag56
(g72
g58
NtRp2272
(dp2273
g61
(dp2274
sg70
g2121
sg63
(lp2275
g56
(g77
g58
NtRp2276
(dp2277
g61
(dp2278
g81
g82
ssg70
g2272
sg63
(lp2279
S'HTTP_HOST'
p2280
asbag56
(g77
g58
NtRp2281
(dp2282
g61
(dp2283
g88
g89
ssg70
g2272
sg63
(lp2284
S':'
asbag56
(g77
g58
NtRp2285
(dp2286
g61
(dp2287
sg70
g2272
sg63
(lp2288
g56
(g57
g58
NtRp2289
(dp2290
g61
(dp2291
g69
I3
ssg70
g2285
sg63
(lp2292
g1341
asbasbasbag56
(g72
g58
NtRp2293
(dp2294
g61
(dp2295
sg70
g2121
sg63
(lp2296
g56
(g77
g58
NtRp2297
(dp2298
g61
(dp2299
g81
g82
ssg70
g2293
sg63
(lp2300
S'HTTP_USER_AGENT'
p2301
asbag56
(g77
g58
NtRp2302
(dp2303
g61
(dp2304
g88
g89
ssg70
g2293
sg63
(lp2305
S':'
asbag56
(g77
g58
NtRp2306
(dp2307
g61
(dp2308
sg70
g2293
sg63
(lp2309
g56
(g57
g58
NtRp2310
(dp2311
g61
(dp2312
g69
I3
ssg70
g2306
sg63
(lp2313
g1363
asbasbasbag56
(g72
g58
NtRp2314
(dp2315
g61
(dp2316
sg70
g2121
sg63
(lp2317
g56
(g77
g58
NtRp2318
(dp2319
g61
(dp2320
g81
g82
ssg70
g2314
sg63
(lp2321
S'PATH_INFO'
p2322
asbag56
(g77
g58
NtRp2323
(dp2324
g61
(dp2325
g88
g89
ssg70
g2314
sg63
(lp2326
S':'
asbag56
(g77
g58
NtRp2327
(dp2328
g61
(dp2329
sg70
g2314
sg63
(lp2330
g56
(g57
g58
NtRp2331
(dp2332
g61
(dp2333
g69
I3
ssg70
g2327
sg63
(lp2334
g1385
asbasbasbag56
(g72
g58
NtRp2335
(dp2336
g61
(dp2337
sg70
g2121
sg63
(lp2338
g56
(g77
g58
NtRp2339
(dp2340
g61
(dp2341
g81
g82
ssg70
g2335
sg63
(lp2342
S'QUERY_STRING'
p2343
asbag56
(g77
g58
NtRp2344
(dp2345
g61
(dp2346
g88
g89
ssg70
g2335
sg63
(lp2347
S':'
asbag56
(g77
g58
NtRp2348
(dp2349
g61
(dp2350
sg70
g2335
sg63
(lp2351
g56
(g57
g58
NtRp2352
(dp2353
g61
(dp2354
g69
I3
ssg70
g2348
sg63
(lp2355
S''
asbasbasbag56
(g72
g58
NtRp2356
(dp2357
g61
(dp2358
sg70
g2121
sg63
(lp2359
g56
(g77
g58
NtRp2360
(dp2361
g61
(dp2362
g81
g82
ssg70
g2356
sg63
(lp2363
S'REMOTE_ADDR'
p2364
asbag56
(g77
g58
NtRp2365
(dp2366
g61
(dp2367
g88
g89
ssg70
g2356
sg63
(lp2368
S':'
asbag56
(g77
g58
NtRp2369
(dp2370
g61
(dp2371
sg70
g2356
sg63
(lp2372
g56
(g57
g58
NtRp2373
(dp2374
g61
(dp2375
g69
I3
ssg70
g2369
sg63
(lp2376
g189
asbasbasbag56
(g72
g58
NtRp2377
(dp2378
g61
(dp2379
sg70
g2121
sg63
(lp2380
g56
(g77
g58
NtRp2381
(dp2382
g61
(dp2383
g81
g82
ssg70
g2377
sg63
(lp2384
S'REMOTE_PORT'
p2385
asbag56
(g77
g58
NtRp2386
(dp2387
g61
(dp2388
g88
g89
ssg70
g2377
sg63
(lp2389
S':'
asbag56
(g77
g58
NtRp2390
(dp2391
g61
(dp2392
sg70
g2377
sg63
(lp2393
g56
(g57
g58
NtRp2394
(dp2395
g61
(dp2396
g69
I3
ssg70
g2390
sg63
(lp2397
g1449
asbasbasbag56
(g72
g58
NtRp2398
(dp2399
g61
(dp2400
sg70
g2121
sg63
(lp2401
g56
(g77
g58
NtRp2402
(dp2403
g61
(dp2404
g81
g82
ssg70
g2398
sg63
(lp2405
S'REQUEST_METHOD'
p2406
asbag56
(g77
g58
NtRp2407
(dp2408
g61
(dp2409
g88
g89
ssg70
g2398
sg63
(lp2410
S':'
asbag56
(g77
g58
NtRp2411
(dp2412
g61
(dp2413
sg70
g2398
sg63
(lp2414
g56
(g57
g58
NtRp2415
(dp2416
g61
(dp2417
g69
I3
ssg70
g2411
sg63
(lp2418
g1471
asbasbasbag56
(g72
g58
NtRp2419
(dp2420
g61
(dp2421
sg70
g2121
sg63
(lp2422
g56
(g77
g58
NtRp2423
(dp2424
g61
(dp2425
g81
g82
ssg70
g2419
sg63
(lp2426
S'SCRIPT_NAME'
p2427
asbag56
(g77
g58
NtRp2428
(dp2429
g61
(dp2430
g88
g89
ssg70
g2419
sg63
(lp2431
S':'
asbag56
(g77
g58
NtRp2432
(dp2433
g61
(dp2434
sg70
g2419
sg63
(lp2435
g56
(g57
g58
NtRp2436
(dp2437
g61
(dp2438
g69
I3
ssg70
g2432
sg63
(lp2439
S''
asbasbasbag56
(g72
g58
NtRp2440
(dp2441
g61
(dp2442
sg70
g2121
sg63
(lp2443
g56
(g77
g58
NtRp2444
(dp2445
g61
(dp2446
g81
g82
ssg70
g2440
sg63
(lp2447
S'SERVER_NAME'
p2448
asbag56
(g77
g58
NtRp2449
(dp2450
g61
(dp2451
g88
g89
ssg70
g2440
sg63
(lp2452
S':'
asbag56
(g77
g58
NtRp2453
(dp2454
g61
(dp2455
sg70
g2440
sg63
(lp2456
g56
(g57
g58
NtRp2457
(dp2458
g61
(dp2459
g69
I3
ssg70
g2453
sg63
(lp2460
g1514
asbasbasbag56
(g72
g58
NtRp2461
(dp2462
g61
(dp2463
sg70
g2121
sg63
(lp2464
g56
(g77
g58
NtRp2465
(dp2466
g61
(dp2467
g81
g82
ssg70
g2461
sg63
(lp2468
S'SERVER_PORT'
p2469
asbag56
(g77
g58
NtRp2470
(dp2471
g61
(dp2472
g88
g89
ssg70
g2461
sg63
(lp2473
S':'
asbag56
(g77
g58
NtRp2474
(dp2475
g61
(dp2476
sg70
g2461
sg63
(lp2477
g56
(g57
g58
NtRp2478
(dp2479
g61
(dp2480
g69
I3
ssg70
g2474
sg63
(lp2481
g1536
asbasbasbag56
(g72
g58
NtRp2482
(dp2483
g61
(dp2484
sg70
g2121
sg63
(lp2485
g56
(g77
g58
NtRp2486
(dp2487
g61
(dp2488
g81
g82
ssg70
g2482
sg63
(lp2489
S'SERVER_PROTOCOL'
p2490
asbag56
(g77
g58
NtRp2491
(dp2492
g61
(dp2493
g88
g89
ssg70
g2482
sg63
(lp2494
S':'
asbag56
(g77
g58
NtRp2495
(dp2496
g61
(dp2497
sg70
g2482
sg63
(lp2498
g56
(g57
g58
NtRp2499
(dp2500
g61
(dp2501
g69
I3
ssg70
g2495
sg63
(lp2502
g1558
asbasbasbag56
(g72
g58
NtRp2503
(dp2504
g61
(dp2505
sg70
g2121
sg63
(lp2506
g56
(g77
g58
NtRp2507
(dp2508
g61
(dp2509
g81
g82
ssg70
g2503
sg63
(lp2510
S'SERVER_SOFTWARE'
p2511
asbag56
(g77
g58
NtRp2512
(dp2513
g61
(dp2514
g88
g89
ssg70
g2503
sg63
(lp2515
S':'
asbag56
(g77
g58
NtRp2516
(dp2517
g61
(dp2518
sg70
g2503
sg63
(lp2519
g56
(g57
g58
NtRp2520
(dp2521
g61
(dp2522
g69
I3
ssg70
g2516
sg63
(lp2523
g1580
asbasbasbag56
(g72
g58
NtRp2524
(dp2525
g61
(dp2526
sg70
g2121
sg63
(lp2527
g56
(g77
g58
NtRp2528
(dp2529
g61
(dp2530
g81
g82
ssg70
g2524
sg63
(lp2531
S'wsgi.errors'
p2532
asbag56
(g77
g58
NtRp2533
(dp2534
g61
(dp2535
g88
g89
ssg70
g2524
sg63
(lp2536
S':'
asbag56
(g77
g58
NtRp2537
(dp2538
g61
(dp2539
sg70
g2524
sg63
(lp2540
g56
(g57
g58
NtRp2541
(dp2542
g61
(dp2543
g69
I3
ssg70
g2537
sg63
(lp2544
S"<open file '<stderr>', mode 'w' at 0x7ff5df960270>"
p2545
asbasbasbag56
(g72
g58
NtRp2546
(dp2547
g61
(dp2548
sg70
g2121
sg63
(lp2549
g56
(g77
g58
NtRp2550
(dp2551
g61
(dp2552
g81
g82
ssg70
g2546
sg63
(lp2553
S'wsgi.file_wrapper'
p2554
asbag56
(g77
g58
NtRp2555
(dp2556
g61
(dp2557
g88
g89
ssg70
g2546
sg63
(lp2558
S':'
asbag56
(g77
g58
NtRp2559
(dp2560
g61
(dp2561
sg70
g2546
sg63
(lp2562
g56
(g57
g58
NtRp2563
(dp2564
g61
(dp2565
g69
I3
ssg70
g2559
sg63
(lp2566
S'<class gluon.rocket.FileWrapper at 0x21539a8>'
p2567
asbasbasbag56
(g72
g58
NtRp2568
(dp2569
g61
(dp2570
sg70
g2121
sg63
(lp2571
g56
(g77
g58
NtRp2572
(dp2573
g61
(dp2574
g81
g82
ssg70
g2568
sg63
(lp2575
S'wsgi.input'
p2576
asbag56
(g77
g58
NtRp2577
(dp2578
g61
(dp2579
g88
g89
ssg70
g2568
sg63
(lp2580
S':'
asbag56
(g77
g58
NtRp2581
(dp2582
g61
(dp2583
sg70
g2568
sg63
(lp2584
g56
(g57
g58
NtRp2585
(dp2586
g61
(dp2587
g69
I3
ssg70
g2581
sg63
(lp2588
S'<cStringIO.StringO object at 0x3342ae8>'
p2589
asbasbasbag56
(g72
g58
NtRp2590
(dp2591
g61
(dp2592
sg70
g2121
sg63
(lp2593
g56
(g77
g58
NtRp2594
(dp2595
g61
(dp2596
g81
g82
ssg70
g2590
sg63
(lp2597
S'wsgi.multiprocess'
p2598
asbag56
(g77
g58
NtRp2599
(dp2600
g61
(dp2601
g88
g89
ssg70
g2590
sg63
(lp2602
S':'
asbag56
(g77
g58
NtRp2603
(dp2604
g61
(dp2605
sg70
g2590
sg63
(lp2606
g56
(g57
g58
NtRp2607
(dp2608
g61
(dp2609
g69
I3
ssg70
g2603
sg63
(lp2610
g99
asbasbasbag56
(g72
g58
NtRp2611
(dp2612
g61
(dp2613
sg70
g2121
sg63
(lp2614
g56
(g77
g58
NtRp2615
(dp2616
g61
(dp2617
g81
g82
ssg70
g2611
sg63
(lp2618
S'wsgi.multithread'
p2619
asbag56
(g77
g58
NtRp2620
(dp2621
g61
(dp2622
g88
g89
ssg70
g2611
sg63
(lp2623
S':'
asbag56
(g77
g58
NtRp2624
(dp2625
g61
(dp2626
sg70
g2611
sg63
(lp2627
g56
(g57
g58
NtRp2628
(dp2629
g61
(dp2630
g69
I3
ssg70
g2624
sg63
(lp2631
g1754
asbasbasbag56
(g72
g58
NtRp2632
(dp2633
g61
(dp2634
sg70
g2121
sg63
(lp2635
g56
(g77
g58
NtRp2636
(dp2637
g61
(dp2638
g81
g82
ssg70
g2632
sg63
(lp2639
S'wsgi.run_once'
p2640
asbag56
(g77
g58
NtRp2641
(dp2642
g61
(dp2643
g88
g89
ssg70
g2632
sg63
(lp2644
S':'
asbag56
(g77
g58
NtRp2645
(dp2646
g61
(dp2647
sg70
g2632
sg63
(lp2648
g56
(g57
g58
NtRp2649
(dp2650
g61
(dp2651
g69
I3
ssg70
g2645
sg63
(lp2652
g99
asbasbasbag56
(g72
g58
NtRp2653
(dp2654
g61
(dp2655
sg70
g2121
sg63
(lp2656
g56
(g77
g58
NtRp2657
(dp2658
g61
(dp2659
g81
g82
ssg70
g2653
sg63
(lp2660
S'wsgi.url_scheme'
p2661
asbag56
(g77
g58
NtRp2662
(dp2663
g61
(dp2664
g88
g89
ssg70
g2653
sg63
(lp2665
S':'
asbag56
(g77
g58
NtRp2666
(dp2667
g61
(dp2668
sg70
g2653
sg63
(lp2669
g56
(g57
g58
NtRp2670
(dp2671
g61
(dp2672
g69
I3
ssg70
g2666
sg63
(lp2673
g1797
asbasbasbag56
(g72
g58
NtRp2674
(dp2675
g61
(dp2676
sg70
g2121
sg63
(lp2677
g56
(g77
g58
NtRp2678
(dp2679
g61
(dp2680
g81
g82
ssg70
g2674
sg63
(lp2681
S'wsgi.version'
p2682
asbag56
(g77
g58
NtRp2683
(dp2684
g61
(dp2685
g88
g89
ssg70
g2674
sg63
(lp2686
S':'
asbag56
(g77
g58
NtRp2687
(dp2688
g61
(dp2689
sg70
g2674
sg63
(lp2690
g56
(g57
g58
NtRp2691
(dp2692
g61
(dp2693
g69
I3
ssg70
g2687
sg63
(lp2694
S'1'
asbasbasbasbasbasbasbasbasbasbasbasbasbsS'frames'
p2695
(lp2696
(dp2697
S'file'
p2698
S'/home/strzel-a/web2py/gluon/restricted.py'
p2699
sS'dump'
p2700
(dp2701
S'environment'
p2702
S"{'A': <class 'gluon.html.A'>, 'Auth': <class 'gluon.tools.Auth'>, 'B': <class 'gluon.html.B'>, 'BEAUTIFY': <class 'gluon.html.BEAUTIFY'>, 'BODY': <class 'gluon.html.BODY'>, 'BR': <class 'gluon.html.BR'>, 'CENTER': <class 'gluon.html.CENTER'>, 'CLEANUP': <class 'gluon.validators.CLEANUP'>, 'CODE': <class 'gluon.html.CODE'>, 'CRYPT': <class 'gluon.validators.CRYPT'>, ...}"
p2703
sS'ccode'
p2704
S'<code object <module> at 0x332df30, file "/home/...cations/Skytoop/controllers/default.py", line 11>'
p2705
ssS'lnum'
p2706
I181
sS'lines'
p2707
(dp2708
I176
S'    try:'
p2709
sI177
S'        if type(code) == types.CodeType:'
p2710
sI178
S'            ccode = code'
p2711
sI179
S'        else:'
p2712
sI180
S'            ccode = compile2(code,layer)'
p2713
sI181
S'        exec ccode in environment'
p2714
sI182
S'    except HTTP:'
p2715
sI183
S'        raise'
p2716
sI184
S'    except Exception:'
p2717
sI185
S'        # XXX Show exception in Wing IDE if running in debugger'
p2718
ssS'call'
p2719
S"(code='# -*- coding: utf-8 -*- \\n#######################...g)\\n\\nresponse._vars=response._caller(create_user)\\n', environment={'A': <class 'gluon.html.A'>, 'Auth': <class 'gluon.tools.Auth'>, 'B': <class 'gluon.html.B'>, 'BEAUTIFY': <class 'gluon.html.BEAUTIFY'>, 'BODY': <class 'gluon.html.BODY'>, 'BR': <class 'gluon.html.BR'>, 'CENTER': <class 'gluon.html.CENTER'>, 'CLEANUP': <class 'gluon.validators.CLEANUP'>, 'CODE': <class 'gluon.html.CODE'>, 'CRYPT': <class 'gluon.validators.CRYPT'>, ...}, layer='/home/strzel-a/web2py/applications/Skytoop/controllers/default.py')"
p2720
sS'func'
p2721
S'restricted'
p2722
sa(dp2723
g2698
S'/home/strzel-a/web2py/applications/Skytoop/controllers/default.py'
p2724
sg2700
(dp2725
sg2706
I127
sg2707
(dp2726
I116
S"                        email='model@skytoop.com',"
p2727
sI117
S"                        password=int(CRYPT('123456')))"
p2728
sI118
S''
sI119
S'def user():'
p2729
sI120
S'    # User login page (refer to view/desk/user.html + view/layouts/layout_login.html)'
p2730
sI121
S'    notes_log = db(db.note_log.id>0).select(db.note_log.ALL,'
p2731
sI122
S'                                            orderby=~db.note_log.date_created,'
p2732
sI123
S'                                            limitby=(0,10),'
p2733
sI124
S'                                            cache=(cache.ram,19000))'
p2734
sI125
S'    return dict(form=auth(), notes_log=notes_log)'
p2735
ssg2719
S'()'
p2736
sg2721
S'<module>'
p2737
sa(dp2738
g2698
S'/home/strzel-a/web2py/gluon/globals.py'
p2739
sg2700
(dp2740
S'self'
p2741
S'undefined'
p2742
sS'f'
S'<function create_user>'
p2743
ssg2706
I133
sg2707
(dp2744
I128
S"        self.flash = ''           # used by the default view layout"
p2745
sI129
S'        self.meta = Storage()     # used by web2py_ajax.html'
p2746
sI130
S'        self.menu = []            # used by the default view layout'
p2747
sI131
S'        self.files = []           # used by web2py_ajax.html'
p2748
sI132
S'        self._vars = None'
p2749
sI133
S'        self._caller = lambda f: f()'
p2750
sI134
S'        self._view_environment = None'
p2751
sI135
S'        self._custom_commit = None'
p2752
sI136
S'        self._custom_rollback = None'
p2753
sI137
S''
ssg2719
S'(f=<function create_user>)'
p2754
sg2721
S'<lambda>'
p2755
sa(dp2756
g2698
S'/home/strzel-a/web2py/applications/Skytoop/controllers/default.py'
p2757
sg2700
(dp2758
S'global CRYPT'
p2759
S"<class 'gluon.validators.CRYPT'>"
p2760
sS'builtinint'
p2761
S"<type 'int'>"
p2762
sS'password'
p2763
g2742
ssg2706
I117
sg2707
(dp2764
I112
S'def create_user():'
p2765
sI113
S"    db(db.auth_user.first_name=='Model').delete()"
p2766
sI114
S"    db.auth_user.insert(first_name='Model',"
p2767
sI115
S"                        last_name='Model',"
p2768
sI116
S"                        email='model@skytoop.com',"
p2769
sI117
S"                        password=int(CRYPT('123456')))"
p2770
sI118
S''
sI119
S'def user():'
p2771
sI120
S'    # User login page (refer to view/desk/user.html + view/layouts/layout_login.html)'
p2772
sI121
S'    notes_log = db(db.note_log.id>0).select(db.note_log.ALL,'
p2773
ssg2719
S'()'
p2774
sg2721
S'create_user'
p2775
sasS'pyver'
p2776
S'Python 2.7.1+: /usr/bin/python'
p2777
sS'session'
p2778
g56
(g57
g58
NtRp2779
(dp2780
g61
(dp2781
sg63
(lp2782
g56
(g65
g58
NtRp2783
(dp2784
g61
(dp2785
g69
I5
ssg70
Nsg63
(lp2786
g56
(g72
g58
NtRp2787
(dp2788
g61
(dp2789
sg70
g2783
sg63
(lp2790
g56
(g77
g58
NtRp2791
(dp2792
g61
(dp2793
g81
g82
ssg70
g2787
sg63
(lp2794
S'can_modify'
p2795
asbag56
(g77
g58
NtRp2796
(dp2797
g61
(dp2798
g88
g89
ssg70
g2787
sg63
(lp2799
S':'
asbag56
(g77
g58
NtRp2800
(dp2801
g61
(dp2802
sg70
g2787
sg63
(lp2803
g56
(g57
g58
NtRp2804
(dp2805
g61
(dp2806
g69
I5
ssg70
g2800
sg63
(lp2807
g1754
asbasbasbag56
(g72
g58
NtRp2808
(dp2809
g61
(dp2810
sg70
g2783
sg63
(lp2811
g56
(g77
g58
NtRp2812
(dp2813
g61
(dp2814
g81
g82
ssg70
g2808
sg63
(lp2815
S'desktop_id'
p2816
asbag56
(g77
g58
NtRp2817
(dp2818
g61
(dp2819
g88
g89
ssg70
g2808
sg63
(lp2820
S':'
asbag56
(g77
g58
NtRp2821
(dp2822
g61
(dp2823
sg70
g2808
sg63
(lp2824
g56
(g57
g58
NtRp2825
(dp2826
g61
(dp2827
g69
I5
ssg70
g2821
sg63
(lp2828
S'1'
asbasbasbag56
(g72
g58
NtRp2829
(dp2830
g61
(dp2831
sg70
g2783
sg63
(lp2832
g56
(g77
g58
NtRp2833
(dp2834
g61
(dp2835
g81
g82
ssg70
g2829
sg63
(lp2836
S'flash'
p2837
asbag56
(g77
g58
NtRp2838
(dp2839
g61
(dp2840
g88
g89
ssg70
g2829
sg63
(lp2841
S':'
asbag56
(g77
g58
NtRp2842
(dp2843
g61
(dp2844
sg70
g2829
sg63
(lp2845
g56
(g57
g58
NtRp2846
(dp2847
g61
(dp2848
g69
I5
ssg70
g2842
sg63
(lp2849
S''
asbasbasbag56
(g72
g58
NtRp2850
(dp2851
g61
(dp2852
sg70
g2783
sg63
(lp2853
g56
(g77
g58
NtRp2854
(dp2855
g61
(dp2856
g81
g82
ssg70
g2850
sg63
(lp2857
S'last_query'
p2858
asbag56
(g77
g58
NtRp2859
(dp2860
g61
(dp2861
g88
g89
ssg70
g2850
sg63
(lp2862
S':'
asbag56
(g77
g58
NtRp2863
(dp2864
g61
(dp2865
sg70
g2850
sg63
(lp2866
g56
(g57
g58
NtRp2867
(dp2868
g61
(dp2869
g69
I5
ssg70
g2863
sg63
(lp2870
S'db.auth_user.id>0'
p2871
asbasbasbasbasbsS'etype'
p2872
S"<type 'exceptions.TypeError'>"
p2873
sS'date'
p2874
S'Tue May 24 22:12:10 2011'
p2875
sS'response'
p2876
g56
(g57
g58
NtRp2877
(dp2878
g61
(dp2879
sg63
(lp2880
g56
(g65
g58
NtRp2881
(dp2882
g61
(dp2883
g69
I5
ssg70
Nsg63
(lp2884
g56
(g72
g58
NtRp2885
(dp2886
g61
(dp2887
sg70
g2881
sg63
(lp2888
g56
(g77
g58
NtRp2889
(dp2890
g61
(dp2891
g81
g82
ssg70
g2885
sg63
(lp2892
g154
asbag56
(g77
g58
NtRp2893
(dp2894
g61
(dp2895
g88
g89
ssg70
g2885
sg63
(lp2896
S':'
asbag56
(g77
g58
NtRp2897
(dp2898
g61
(dp2899
sg70
g2885
sg63
(lp2900
g56
(g57
g58
NtRp2901
(dp2902
g61
(dp2903
g69
I5
ssg70
g2897
sg63
(lp2904
S'<cStringIO.StringO object at 0x2fd6768>'
p2905
asbasbasbag56
(g72
g58
NtRp2906
(dp2907
g61
(dp2908
sg70
g2881
sg63
(lp2909
g56
(g77
g58
NtRp2910
(dp2911
g61
(dp2912
g81
g82
ssg70
g2906
sg63
(lp2913
g220
asbag56
(g77
g58
NtRp2914
(dp2915
g61
(dp2916
g88
g89
ssg70
g2906
sg63
(lp2917
S':'
asbag56
(g77
g58
NtRp2918
(dp2919
g61
(dp2920
sg70
g2906
sg63
(lp2921
g56
(g57
g58
NtRp2922
(dp2923
g61
(dp2924
g69
I5
ssg70
g2918
sg63
(lp2925
g56
(g65
g58
NtRp2926
(dp2927
g61
(dp2928
g69
I4
ssg70
Nsg63
(lp2929
g56
(g72
g58
NtRp2930
(dp2931
g61
(dp2932
sg70
g2926
sg63
(lp2933
g56
(g77
g58
NtRp2934
(dp2935
g61
(dp2936
g81
g82
ssg70
g2930
sg63
(lp2937
S'session_id_skytoop'
p2938
asbag56
(g77
g58
NtRp2939
(dp2940
g61
(dp2941
g88
g89
ssg70
g2930
sg63
(lp2942
S':'
asbag56
(g77
g58
NtRp2943
(dp2944
g61
(dp2945
sg70
g2930
sg63
(lp2946
g56
(g57
g58
NtRp2947
(dp2948
g61
(dp2949
g69
I4
ssg70
g2943
sg63
(lp2950
g56
(g65
g58
NtRp2951
(dp2952
g61
(dp2953
g69
I3
ssg70
Nsg63
(lp2954
g56
(g72
g58
NtRp2955
(dp2956
g61
(dp2957
sg70
g2951
sg63
(lp2958
g56
(g77
g58
NtRp2959
(dp2960
g61
(dp2961
g81
g82
ssg70
g2955
sg63
(lp2962
g270
asbag56
(g77
g58
NtRp2963
(dp2964
g61
(dp2965
g88
g89
ssg70
g2955
sg63
(lp2966
S':'
asbag56
(g77
g58
NtRp2967
(dp2968
g61
(dp2969
sg70
g2955
sg63
(lp2970
g56
(g57
g58
NtRp2971
(dp2972
g61
(dp2973
g69
I3
ssg70
g2967
sg63
(lp2974
S''
asbasbasbag56
(g72
g58
NtRp2975
(dp2976
g61
(dp2977
sg70
g2951
sg63
(lp2978
g56
(g77
g58
NtRp2979
(dp2980
g61
(dp2981
g81
g82
ssg70
g2975
sg63
(lp2982
g291
asbag56
(g77
g58
NtRp2983
(dp2984
g61
(dp2985
g88
g89
ssg70
g2975
sg63
(lp2986
S':'
asbag56
(g77
g58
NtRp2987
(dp2988
g61
(dp2989
sg70
g2975
sg63
(lp2990
g56
(g57
g58
NtRp2991
(dp2992
g61
(dp2993
g69
I3
ssg70
g2987
sg63
(lp2994
S''
asbasbasbag56
(g72
g58
NtRp2995
(dp2996
g61
(dp2997
sg70
g2951
sg63
(lp2998
g56
(g77
g58
NtRp2999
(dp3000
g61
(dp3001
g81
g82
ssg70
g2995
sg63
(lp3002
g312
asbag56
(g77
g58
NtRp3003
(dp3004
g61
(dp3005
g88
g89
ssg70
g2995
sg63
(lp3006
S':'
asbag56
(g77
g58
NtRp3007
(dp3008
g61
(dp3009
sg70
g2995
sg63
(lp3010
g56
(g57
g58
NtRp3011
(dp3012
g61
(dp3013
g69
I3
ssg70
g3007
sg63
(lp3014
S''
asbasbasbag56
(g72
g58
NtRp3015
(dp3016
g61
(dp3017
sg70
g2951
sg63
(lp3018
g56
(g77
g58
NtRp3019
(dp3020
g61
(dp3021
g81
g82
ssg70
g3015
sg63
(lp3022
g333
asbag56
(g77
g58
NtRp3023
(dp3024
g61
(dp3025
g88
g89
ssg70
g3015
sg63
(lp3026
S':'
asbag56
(g77
g58
NtRp3027
(dp3028
g61
(dp3029
sg70
g3015
sg63
(lp3030
g56
(g57
g58
NtRp3031
(dp3032
g61
(dp3033
g69
I3
ssg70
g3027
sg63
(lp3034
S''
asbasbasbag56
(g72
g58
NtRp3035
(dp3036
g61
(dp3037
sg70
g2951
sg63
(lp3038
g56
(g77
g58
NtRp3039
(dp3040
g61
(dp3041
g81
g82
ssg70
g3035
sg63
(lp3042
g354
asbag56
(g77
g58
NtRp3043
(dp3044
g61
(dp3045
g88
g89
ssg70
g3035
sg63
(lp3046
S':'
asbag56
(g77
g58
NtRp3047
(dp3048
g61
(dp3049
sg70
g3035
sg63
(lp3050
g56
(g57
g58
NtRp3051
(dp3052
g61
(dp3053
g69
I3
ssg70
g3047
sg63
(lp3054
S''
asbasbasbag56
(g72
g58
NtRp3055
(dp3056
g61
(dp3057
sg70
g2951
sg63
(lp3058
g56
(g77
g58
NtRp3059
(dp3060
g61
(dp3061
g81
g82
ssg70
g3055
sg63
(lp3062
g375
asbag56
(g77
g58
NtRp3063
(dp3064
g61
(dp3065
g88
g89
ssg70
g3055
sg63
(lp3066
S':'
asbag56
(g77
g58
NtRp3067
(dp3068
g61
(dp3069
sg70
g3055
sg63
(lp3070
g56
(g57
g58
NtRp3071
(dp3072
g61
(dp3073
g69
I3
ssg70
g3067
sg63
(lp3074
S'/'
asbasbasbag56
(g72
g58
NtRp3075
(dp3076
g61
(dp3077
sg70
g2951
sg63
(lp3078
g56
(g77
g58
NtRp3079
(dp3080
g61
(dp3081
g81
g82
ssg70
g3075
sg63
(lp3082
g396
asbag56
(g77
g58
NtRp3083
(dp3084
g61
(dp3085
g88
g89
ssg70
g3075
sg63
(lp3086
S':'
asbag56
(g77
g58
NtRp3087
(dp3088
g61
(dp3089
sg70
g3075
sg63
(lp3090
g56
(g57
g58
NtRp3091
(dp3092
g61
(dp3093
g69
I3
ssg70
g3087
sg63
(lp3094
S''
asbasbasbag56
(g72
g58
NtRp3095
(dp3096
g61
(dp3097
sg70
g2951
sg63
(lp3098
g56
(g77
g58
NtRp3099
(dp3100
g61
(dp3101
g81
g82
ssg70
g3095
sg63
(lp3102
g417
asbag56
(g77
g58
NtRp3103
(dp3104
g61
(dp3105
g88
g89
ssg70
g3095
sg63
(lp3106
S':'
asbag56
(g77
g58
NtRp3107
(dp3108
g61
(dp3109
sg70
g3095
sg63
(lp3110
g56
(g57
g58
NtRp3111
(dp3112
g61
(dp3113
g69
I3
ssg70
g3107
sg63
(lp3114
S''
asbasbasbasbasbasbasbasbasbasbasbag56
(g72
g58
NtRp3115
(dp3116
g61
(dp3117
sg70
g2881
sg63
(lp3118
g56
(g77
g58
NtRp3119
(dp3120
g61
(dp3121
g81
g82
ssg70
g3115
sg63
(lp3122
S'files'
p3123
asbag56
(g77
g58
NtRp3124
(dp3125
g61
(dp3126
g88
g89
ssg70
g3115
sg63
(lp3127
S':'
asbag56
(g77
g58
NtRp3128
(dp3129
g61
(dp3130
sg70
g3115
sg63
(lp3131
g56
(g57
g58
NtRp3132
(dp3133
g61
(dp3134
g69
I5
ssg70
g3128
sg63
(lp3135
g56
(g65
g58
NtRp3136
(dp3137
g61
(dp3138
g69
I4
ssg70
Nsg63
(lp3139
sbasbasbasbag56
(g72
g58
NtRp3140
(dp3141
g61
(dp3142
sg70
g2881
sg63
(lp3143
g56
(g77
g58
NtRp3144
(dp3145
g61
(dp3146
g81
g82
ssg70
g3140
sg63
(lp3147
S'flash'
p3148
asbag56
(g77
g58
NtRp3149
(dp3150
g61
(dp3151
g88
g89
ssg70
g3140
sg63
(lp3152
S':'
asbag56
(g77
g58
NtRp3153
(dp3154
g61
(dp3155
sg70
g3140
sg63
(lp3156
g56
(g57
g58
NtRp3157
(dp3158
g61
(dp3159
g69
I5
ssg70
g3153
sg63
(lp3160
S''
asbasbasbag56
(g72
g58
NtRp3161
(dp3162
g61
(dp3163
sg70
g2881
sg63
(lp3164
g56
(g77
g58
NtRp3165
(dp3166
g61
(dp3167
g81
g82
ssg70
g3161
sg63
(lp3168
S'headers'
p3169
asbag56
(g77
g58
NtRp3170
(dp3171
g61
(dp3172
g88
g89
ssg70
g3161
sg63
(lp3173
S':'
asbag56
(g77
g58
NtRp3174
(dp3175
g61
(dp3176
sg70
g3161
sg63
(lp3177
g56
(g57
g58
NtRp3178
(dp3179
g61
(dp3180
g69
I5
ssg70
g3174
sg63
(lp3181
g56
(g65
g58
NtRp3182
(dp3183
g61
(dp3184
g69
I4
ssg70
Nsg63
(lp3185
g56
(g72
g58
NtRp3186
(dp3187
g61
(dp3188
sg70
g3182
sg63
(lp3189
g56
(g77
g58
NtRp3190
(dp3191
g61
(dp3192
g81
g82
ssg70
g3186
sg63
(lp3193
S'Cache-Control'
p3194
asbag56
(g77
g58
NtRp3195
(dp3196
g61
(dp3197
g88
g89
ssg70
g3186
sg63
(lp3198
S':'
asbag56
(g77
g58
NtRp3199
(dp3200
g61
(dp3201
sg70
g3186
sg63
(lp3202
g56
(g57
g58
NtRp3203
(dp3204
g61
(dp3205
g69
I4
ssg70
g3199
sg63
(lp3206
S'no-store, no-cache, must-revalidate, post-check=0, pre-check=0'
p3207
asbasbasbag56
(g72
g58
NtRp3208
(dp3209
g61
(dp3210
sg70
g3182
sg63
(lp3211
g56
(g77
g58
NtRp3212
(dp3213
g61
(dp3214
g81
g82
ssg70
g3208
sg63
(lp3215
S'Content-Type'
p3216
asbag56
(g77
g58
NtRp3217
(dp3218
g61
(dp3219
g88
g89
ssg70
g3208
sg63
(lp3220
S':'
asbag56
(g77
g58
NtRp3221
(dp3222
g61
(dp3223
sg70
g3208
sg63
(lp3224
g56
(g57
g58
NtRp3225
(dp3226
g61
(dp3227
g69
I4
ssg70
g3221
sg63
(lp3228
S'text/html; charset=utf-8'
p3229
asbasbasbag56
(g72
g58
NtRp3230
(dp3231
g61
(dp3232
sg70
g3182
sg63
(lp3233
g56
(g77
g58
NtRp3234
(dp3235
g61
(dp3236
g81
g82
ssg70
g3230
sg63
(lp3237
S'Expires'
p3238
asbag56
(g77
g58
NtRp3239
(dp3240
g61
(dp3241
g88
g89
ssg70
g3230
sg63
(lp3242
S':'
asbag56
(g77
g58
NtRp3243
(dp3244
g61
(dp3245
sg70
g3230
sg63
(lp3246
g56
(g57
g58
NtRp3247
(dp3248
g61
(dp3249
g69
I4
ssg70
g3243
sg63
(lp3250
S'Tue, 24 May 2011 20:12:10 GMT'
p3251
asbasbasbag56
(g72
g58
NtRp3252
(dp3253
g61
(dp3254
sg70
g3182
sg63
(lp3255
g56
(g77
g58
NtRp3256
(dp3257
g61
(dp3258
g81
g82
ssg70
g3252
sg63
(lp3259
S'Pragma'
p3260
asbag56
(g77
g58
NtRp3261
(dp3262
g61
(dp3263
g88
g89
ssg70
g3252
sg63
(lp3264
S':'
asbag56
(g77
g58
NtRp3265
(dp3266
g61
(dp3267
sg70
g3252
sg63
(lp3268
g56
(g57
g58
NtRp3269
(dp3270
g61
(dp3271
g69
I4
ssg70
g3265
sg63
(lp3272
S'no-cache'
p3273
asbasbasbasbasbasbasbag56
(g72
g58
NtRp3274
(dp3275
g61
(dp3276
sg70
g2881
sg63
(lp3277
g56
(g77
g58
NtRp3278
(dp3279
g61
(dp3280
g81
g82
ssg70
g3274
sg63
(lp3281
S'menu'
p3282
asbag56
(g77
g58
NtRp3283
(dp3284
g61
(dp3285
g88
g89
ssg70
g3274
sg63
(lp3286
S':'
asbag56
(g77
g58
NtRp3287
(dp3288
g61
(dp3289
sg70
g3274
sg63
(lp3290
g56
(g57
g58
NtRp3291
(dp3292
g61
(dp3293
g69
I5
ssg70
g3287
sg63
(lp3294
g56
(g65
g58
NtRp3295
(dp3296
g61
(dp3297
g69
I4
ssg70
Nsg63
(lp3298
sbasbasbasbag56
(g72
g58
NtRp3299
(dp3300
g61
(dp3301
sg70
g2881
sg63
(lp3302
g56
(g77
g58
NtRp3303
(dp3304
g61
(dp3305
g81
g82
ssg70
g3299
sg63
(lp3306
S'meta'
p3307
asbag56
(g77
g58
NtRp3308
(dp3309
g61
(dp3310
g88
g89
ssg70
g3299
sg63
(lp3311
S':'
asbag56
(g77
g58
NtRp3312
(dp3313
g61
(dp3314
sg70
g3299
sg63
(lp3315
g56
(g57
g58
NtRp3316
(dp3317
g61
(dp3318
g69
I5
ssg70
g3312
sg63
(lp3319
g56
(g65
g58
NtRp3320
(dp3321
g61
(dp3322
g69
I4
ssg70
Nsg63
(lp3323
sbasbasbasbag56
(g72
g58
NtRp3324
(dp3325
g61
(dp3326
sg70
g2881
sg63
(lp3327
g56
(g77
g58
NtRp3328
(dp3329
g61
(dp3330
g81
g82
ssg70
g3324
sg63
(lp3331
S'postprocessing'
p3332
asbag56
(g77
g58
NtRp3333
(dp3334
g61
(dp3335
g88
g89
ssg70
g3324
sg63
(lp3336
S':'
asbag56
(g77
g58
NtRp3337
(dp3338
g61
(dp3339
sg70
g3324
sg63
(lp3340
g56
(g57
g58
NtRp3341
(dp3342
g61
(dp3343
g69
I5
ssg70
g3337
sg63
(lp3344
g56
(g65
g58
NtRp3345
(dp3346
g61
(dp3347
g69
I4
ssg70
Nsg63
(lp3348
sbasbasbasbag56
(g72
g58
NtRp3349
(dp3350
g61
(dp3351
sg70
g2881
sg63
(lp3352
g56
(g77
g58
NtRp3353
(dp3354
g61
(dp3355
g81
g82
ssg70
g3349
sg63
(lp3356
S'session_file'
p3357
asbag56
(g77
g58
NtRp3358
(dp3359
g61
(dp3360
g88
g89
ssg70
g3349
sg63
(lp3361
S':'
asbag56
(g77
g58
NtRp3362
(dp3363
g61
(dp3364
sg70
g3349
sg63
(lp3365
g56
(g57
g58
NtRp3366
(dp3367
g61
(dp3368
g69
I5
ssg70
g3362
sg63
(lp3369
S"<open file '/home/strzel-a/web2py/applications/Skytoop/sessions/127.0.0.1-80367999-125c-402b-a380-445ac9807f4e', mode 'rb+' at 0x2d6c780>"
p3370
asbasbasbag56
(g72
g58
NtRp3371
(dp3372
g61
(dp3373
sg70
g2881
sg63
(lp3374
g56
(g77
g58
NtRp3375
(dp3376
g61
(dp3377
g81
g82
ssg70
g3371
sg63
(lp3378
S'session_filename'
p3379
asbag56
(g77
g58
NtRp3380
(dp3381
g61
(dp3382
g88
g89
ssg70
g3371
sg63
(lp3383
S':'
asbag56
(g77
g58
NtRp3384
(dp3385
g61
(dp3386
sg70
g3371
sg63
(lp3387
g56
(g57
g58
NtRp3388
(dp3389
g61
(dp3390
g69
I5
ssg70
g3384
sg63
(lp3391
S'/home/strzel-a/web2py/applications/Skytoop/sessions/127.0.0.1-80367999-125c-402b-a380-445ac9807f4e'
p3392
asbasbasbag56
(g72
g58
NtRp3393
(dp3394
g61
(dp3395
sg70
g2881
sg63
(lp3396
g56
(g77
g58
NtRp3397
(dp3398
g61
(dp3399
g81
g82
ssg70
g3393
sg63
(lp3400
S'session_id'
p3401
asbag56
(g77
g58
NtRp3402
(dp3403
g61
(dp3404
g88
g89
ssg70
g3393
sg63
(lp3405
S':'
asbag56
(g77
g58
NtRp3406
(dp3407
g61
(dp3408
sg70
g3393
sg63
(lp3409
g56
(g57
g58
NtRp3410
(dp3411
g61
(dp3412
g69
I5
ssg70
g3406
sg63
(lp3413
S'127.0.0.1-80367999-125c-402b-a380-445ac9807f4e'
p3414
asbasbasbag56
(g72
g58
NtRp3415
(dp3416
g61
(dp3417
sg70
g2881
sg63
(lp3418
g56
(g77
g58
NtRp3419
(dp3420
g61
(dp3421
g81
g82
ssg70
g3415
sg63
(lp3422
S'session_id_name'
p3423
asbag56
(g77
g58
NtRp3424
(dp3425
g61
(dp3426
g88
g89
ssg70
g3415
sg63
(lp3427
S':'
asbag56
(g77
g58
NtRp3428
(dp3429
g61
(dp3430
sg70
g3415
sg63
(lp3431
g56
(g57
g58
NtRp3432
(dp3433
g61
(dp3434
g69
I5
ssg70
g3428
sg63
(lp3435
g2938
asbasbasbag56
(g72
g58
NtRp3436
(dp3437
g61
(dp3438
sg70
g2881
sg63
(lp3439
g56
(g77
g58
NtRp3440
(dp3441
g61
(dp3442
g81
g82
ssg70
g3436
sg63
(lp3443
S'session_locked'
p3444
asbag56
(g77
g58
NtRp3445
(dp3446
g61
(dp3447
g88
g89
ssg70
g3436
sg63
(lp3448
S':'
asbag56
(g77
g58
NtRp3449
(dp3450
g61
(dp3451
sg70
g3436
sg63
(lp3452
g56
(g57
g58
NtRp3453
(dp3454
g61
(dp3455
g69
I5
ssg70
g3449
sg63
(lp3456
g1754
asbasbasbag56
(g72
g58
NtRp3457
(dp3458
g61
(dp3459
sg70
g2881
sg63
(lp3460
g56
(g77
g58
NtRp3461
(dp3462
g61
(dp3463
g81
g82
ssg70
g3457
sg63
(lp3464
S'session_new'
p3465
asbag56
(g77
g58
NtRp3466
(dp3467
g61
(dp3468
g88
g89
ssg70
g3457
sg63
(lp3469
S':'
asbag56
(g77
g58
NtRp3470
(dp3471
g61
(dp3472
sg70
g3457
sg63
(lp3473
g56
(g57
g58
NtRp3474
(dp3475
g61
(dp3476
g69
I5
ssg70
g3470
sg63
(lp3477
g99
asbasbasbag56
(g72
g58
NtRp3478
(dp3479
g61
(dp3480
sg70
g2881
sg63
(lp3481
g56
(g77
g58
NtRp3482
(dp3483
g61
(dp3484
g81
g82
ssg70
g3478
sg63
(lp3485
S'status'
p3486
asbag56
(g77
g58
NtRp3487
(dp3488
g61
(dp3489
g88
g89
ssg70
g3478
sg63
(lp3490
S':'
asbag56
(g77
g58
NtRp3491
(dp3492
g61
(dp3493
sg70
g3478
sg63
(lp3494
g56
(g57
g58
NtRp3495
(dp3496
g61
(dp3497
g69
I5
ssg70
g3491
sg63
(lp3498
S'200'
p3499
asbasbasbag56
(g72
g58
NtRp3500
(dp3501
g61
(dp3502
sg70
g2881
sg63
(lp3503
g56
(g77
g58
NtRp3504
(dp3505
g61
(dp3506
g81
g82
ssg70
g3500
sg63
(lp3507
g2036
asbag56
(g77
g58
NtRp3508
(dp3509
g61
(dp3510
g88
g89
ssg70
g3500
sg63
(lp3511
S':'
asbag56
(g77
g58
NtRp3512
(dp3513
g61
(dp3514
sg70
g3500
sg63
(lp3515
g56
(g57
g58
NtRp3516
(dp3517
g61
(dp3518
g69
I5
ssg70
g3512
sg63
(lp3519
g2049
asbasbasbag56
(g72
g58
NtRp3520
(dp3521
g61
(dp3522
sg70
g2881
sg63
(lp3523
g56
(g77
g58
NtRp3524
(dp3525
g61
(dp3526
g81
g82
ssg70
g3520
sg63
(lp3527
S'view'
p3528
asbag56
(g77
g58
NtRp3529
(dp3530
g61
(dp3531
g88
g89
ssg70
g3520
sg63
(lp3532
S':'
asbag56
(g77
g58
NtRp3533
(dp3534
g61
(dp3535
sg70
g3520
sg63
(lp3536
g56
(g57
g58
NtRp3537
(dp3538
g61
(dp3539
g69
I5
ssg70
g3533
sg63
(lp3540
S'default/create_user.html'
p3541
asbasbasbasbasbsS'locals'
p3542
(dp3543
ssS'traceback'
p3544
S'Traceback (most recent call last):\n  File "/home/strzel-a/web2py/gluon/restricted.py", line 181, in restricted\n    exec ccode in environment\n  File "/home/strzel-a/web2py/applications/Skytoop/controllers/default.py", line 127, in <module>\n  File "/home/strzel-a/web2py/gluon/globals.py", line 133, in <lambda>\n    self._caller = lambda f: f()\n  File "/home/strzel-a/web2py/applications/Skytoop/controllers/default.py", line 117, in create_user\n    password=int(CRYPT(\'123456\')))\nTypeError: int() argument must be a string or a number, not \'CRYPT\'\n'
p3545
s.